In archive libheart.a:

hrt_oam.o:     file format elf32-littlearm

Contents of section .text:
 0000 154b1b78 10b5012b 02d010bc 01bc0047  .K.x...+.......G
 0010 00210c00 114b1a68 114b101d 83424c41  .!...K.h.K...BLA
 0020 20001c1d a2424941 01430bd0 11001943   ....BIA.C.....C
 0030 890707d1 8021c900 581802cb 02c28342  .....!..X......B
 0040 fbd1e2e7 80240021 e400585a 50520231  .....$.!..XZPR.1
 0050 a142fad1 d9e7c046 00000000 00000000  .B.....F........
 0060 00000000 f0b55746 4e464546 de46e0b5  ......WFNFEF.F..
 0070 85b011ad 2d78ac46 12ad2d78 a94613ad  ....-x.F..-x.F..
 0080 2e7814ad 2d780eac 24780295 15ad0392  .x..-x..$x......
 0090 01942f78 0fac16ad 384a2478 2d781278  ../x....8J$x-x.x
 00a0 a246a846 10ac17ad 24782d78 012a08d0  .F.F....$x-x.*..
 00b0 05b03cbc 90469946 a246ab46 f0bc01bc  ..<..F.F.F.F....
 00c0 00476246 92031204 12149446 42469202  .GbF.......FBF..
 00d0 12041214 90464a46 5206120c 91465246  .....FJFR....FRF
 00e0 64030c43 11030c43 9b032343 8024a400  d..C...C..#C.$..
 00f0 a246029a 1103189a ad020d43 52441543  .F.........CRD.C
 0100 7f033603 019a3f04 36041b04 2d043f14  ..6...?.6...-.?.
 0110 36141b14 2d0c1a49 012a0fd0 4a46039c  6...-..I.*..JF..
 0120 22431643 42463243 16006246 3243c000  "C.CBF2C..bF2C..
 0130 17434752 08184380 8580b9e7 42463243  .CGR..C.....BF2C
 0140 16006246 32431743 039a1743 4a463a43  ..bF2C.C...CJF:C
 0150 17008022 5200c400 17436752 09194402  ..."R....CgR..D.
 0160 23434b80 074b5b68 40011818 00238d80  #CK..K[h@....#..
 0170 c280c381 c382c283 9ae7c046 00000000  ...........F....
 0180 00000000 00000000 f8b51e00 144b1b78  .............K.x
 0190 05001700 0800012b 1fd1b421 114b4900  .......+...!.KI.
 01a0 00f06efb 104b4900 ca5e9446 0f4a8a5e  ..n..KI..^.F.J.^
 01b0 0f494868 61467943 6d014019 0912c180  .IHhaFyCm.@.....
 01c0 11007143 52423c00 54436346 73430912  ..qCRB<.TCcFsC..
 01d0 24121b12 c181c482 c383f8bc 01bc0047  $..............G
 01e0 00000000 00000000 00000000 00000000  ................
 01f0 00000000 064a1278 012a07d1 054ac000  .....J.x.*...J..
 0200 10184388 5b0a5b02 0b434380 7047c046  ..C.[.[..CC.pG.F
 0210 00000000 00000000 074a1278 10b5012a  .........J.x...*
 0220 06d1ff24 054ac000 835aa343 0b438352  ...$.J...Z.C.C.R
 0230 10bc01bc 0047c046 00000000 00000000  .....G.F........
 0240 0a4b30b5 1c78012c 0cd1ff23 084cc000  .K0..x.,...#.L..
 0250 055b9d43 15430553 20184388 5b0a5b02  .[.C.C.S .C.[.[.
 0260 0b434380 30bc01bc 0047c046 00000000  .CC.0....G.F....
 0270 00000000 074b1b78 012b0ad1 064bc000  .....K.x.+...K..
 0280 c25ac900 ca521818 42885b18 5a808288  .Z...R..B.[.Z...
 0290 9a807047 00000000 00000000 f0b54f46  ..pG..........OF
 02a0 d6464646 1b4b1b78 c0b59146 012b06d0  .FFF.K.x...F.+..
 02b0 1cbc9046 9946a246 f0bc01bc 0047164f  ...F.F.F.....G.O
 02c0 c000c25b 80249446 4a001449 9046515e  ...[.$.FJ..I.FQ^
 02d0 4a468a46 3d186b88 e4049e0b b4405146  JF.F=.k......@QF
 02e0 51434246 240e1e19 76180d49 515e4a46  QCBF$...v..IQ^JF
 02f0 4a436444 a218ff21 64463606 12065b0a  JCdD...!dF6...[.
 0300 360e120e 8c435b02 22433343 c2536b80  6....C[."C3C.Sk.
 0310 cee7c046 00000000 00000000 00000000  ...F............
 0320 00000000 70b50d02 ea170402 ab185340  ....p.........S@
 0330 e217a118 51408b42 11db0802 1900134b  ....Q@.B.......K
 0340 00f09efa 124b8000 c058002d 13db8010  .....K...X.-....
 0350 002c02db 70bc02bc 08474042 fae71802  .,..p....G@B....
 0360 0a4b00f0 8dfa0a4b 8000c058 c923db00  .K.....K...X.#..
 0370 181a002d ebda002c 03db064b 181a8010  ...-...,...K....
 0380 e8e7054b 9c466044 8010e3e7 00000000  ...K.F`D........
 0390 00000000 910c0000 6ff3ffff 284b1b78  ........o...(K.x
 03a0 70b50400 0020012b 02d070bc 02bc0847  p.... .+..p....G
 03b0 244ee000 33185c88 8023a50b db04ab40  $N..3.\..#.....@
 03c0 1b0ee418 2406240e 0d1b3156 5b181b06  ....$.$...1V[...
 03d0 2d021b0e d41aea17 2402ab18 5340e217  -.......$...S@..
 03e0 a1185140 994217dd 1802174b 00f048fa  ..Q@.B.....K..H.
 03f0 164b8000 c358c920 c000c01a 002d14db  .K...X. .....-..
 0400 8010002c 00da4042 b421114b 490000f0  ...,..@B.!.KI...
 0410 37fa0804 000cc8e7 08021900 0a4b00f0  7............K..
 0420 2ffa0a4b 8000c058 e8e7002c 03db094b  /..K...X...,...K
 0430 181a8010 e8e7084b 9c466044 8010e3e7  .......K.F`D....
 0440 00000000 00000000 00000000 00000000  ................
 0450 00000000 910c0000 6ff3ffff 084b1a78  ........o....K.x
 0460 0023012a 01d01800 7047064b c0001818  .#.*....pG.K....
 0470 43880420 9a0b9040 1b181b06 1b0ef2e7  C.. ...@........
 0480 00000000 00000000 094b1b78 02000020  .........K.x... 
 0490 012b00d0 7047074b d2009856 9a180423  .+..pG.K...V...#
 04a0 5288920b 9340c018 0006000e f2e7c046  R....@.........F
 04b0 00000000 00000000 064b1b78 012b07d1  .........K.x.+..
 04c0 054bc000 18188023 42885b01 13434380  .K.....#B.[..CC.
 04d0 7047c046 00000000 00000000 054b1b78  pG.F.........K.x
 04e0 012b06d1 044bc000 18184388 034a1340  .+...K....C..J.@
 04f0 43807047 00000000 00000000 ffefffff  C.pG............
 0500 064b1b78 012b07d1 054bc000 18188023  .K.x.+...K.....#
 0510 42889b01 13434380 7047c046 00000000  B....CC.pG.F....
 0520 00000000 054b1b78 012b06d1 044bc000  .....K.x.+...K..
 0530 18184388 034a1340 43807047 00000000  ..C..J.@C.pG....
 0540 00000000 ffdfffff 054b1b78 012b05d1  .........K.x.+..
 0550 044ac000 835a8902 19438152 7047c046  .J...Z...C.RpG.F
 0560 00000000 00000000 054b1b78 012b06d1  .........K.x.+..
 0570 8023044a c000815a 5b010b43 83527047  .#.J...Z[..C.RpG
 0580 00000000 00000000 054b1b78 012b05d1  .........K.x.+..
 0590 044ac000 835a0449 0b408352 7047c046  .J...Z.I.@.RpG.F
 05a0 00000000 00000000 ffefffff 054b1b78  .............K.x
 05b0 012b05d1 044ac000 835a0449 0b408352  .+...J...Z.I.@.R
 05c0 7047c046 00000000 00000000 ffdfffff  pG.F............
 05d0 054b1b78 012b06d1 8023044a c000815a  .K.x.+...#.J...Z
 05e0 9b010b43 83527047 00000000 00000000  ...C.RpG........
 05f0 054b1b78 012b05d1 044ac000 835a8903  .K.x.+...J...Z..
 0600 19438152 7047c046 00000000 00000000  .C.RpG.F........
 0610 054b1b78 012b06d1 044bc000 18184388  .K.x.+...K....C.
 0620 89031943 41807047 00000000 00000000  ...CA.pG........
 0630 054b1b78 012b05d1 044bc000 18188388  .K.x.+...K......
 0640 0b438380 7047c046 00000000 00000000  .C..pG.F........
 0650 054b1b78 012b06d1 044bc000 18188388  .K.x.+...K......
 0660 89021943 81807047 00000000 00000000  ...C..pG........
 0670 054b1b78 012b06d1 044bc000 18188388  .K.x.+...K......
 0680 09031943 81807047 00000000 00000000  ...C..pG........
 0690 054b1b78 012b06d1 0022044b c000c252  .K.x.+...".K...R
 06a0 18184280 82807047 00000000 00000000  ..B...pG........
 06b0 064b1b78 02000020 012b00d0 70470448  .K.x... .+..pG.H
 06c0 d2008218 0c209388 1840f7e7 00000000  ..... ...@......
 06d0 00000000 064b1b78 02000020 012b00d0  .....K.x... .+..
 06e0 70470448 d2008218 0a209388 1840f7e7  pG.H..... ...@..
 06f0 00000000 00000000 00207047 064b1b78  ......... pG.K.x
 0700 02000020 012b00d0 70470448 d2008218  ... .+..pG.H....
 0710 0e205388 1840f7e7 00000000 00000000  . S..@..........
 0720 054b1b78 012b05d1 044ac000 815aff33  .K.x.+...J...Z.3
 0730 0b438352 7047c046 00000000 00000000  .C.RpG.F........
 0740 054b1b78 012b06d1 8021044a c000835a  .K.x.+...!.J...Z
 0750 49000b40 83527047 00000000 00000000  I..@.RpG........
 0760 064b1b78 02000020 012b00d0 7047044b  .K.x... .+..pG.K
 0770 d200d35a 08301840 f8e7c046 00000000  ...Z.0.@...F....
 0780 00000000 064b1b78 02000020 012b00d0  .....K.x... .+..
 0790 7047044b d200d35a 09301840 f8e7c046  pG.K...Z.0.@...F
 07a0 00000000 00000000 064b1b78 02000020  .........K.x... 
 07b0 012b00d0 7047044b d200d35a 0c301840  .+..pG.K...Z.0.@
 07c0 f8e7c046 00000000 00000000 064b1b78  ...F.........K.x
 07d0 02000020 012b00d0 7047044b d200d35a  ... .+..pG.K...Z
 07e0 0c301840 f8e7c046 00000000 00000000  .0.@...F........
 07f0 064b1b78 02000020 012b00d0 70470448  .K.x... .+..pG.H
 0800 d2008218 0c205388 1840f7e7 00000000  ..... S..@......
 0810 00000000 064b1b78 02000020 012b00d0  .....K.x... .+..
 0820 70470448 d2008218 0d205388 1840f7e7  pG.H..... S..@..
 0830 00000000 00000000 064b1b78 02000020  .........K.x... 
 0840 012b00d0 7047044b d200d35a 0e301840  .+..pG.K...Z.0.@
 0850 f8e7c046 00000000 00000000 064b1b78  ...F.........K.x
 0860 02000020 012b00d0 7047044b d200d35a  ... .+..pG.K...Z
 0870 0a301840 f8e7c046 00000000 00000000  .0.@...F........
 0880 1847c046                             .G.F            
Contents of section .data:
 0000 00000007 00000000 00000106 00020005  ................
Contents of section .rodata:
 0000 00000000 04000000 08000000 0c000000  ................
 0010 10000000 14000000 18000000 1c000000  ................
 0020 20000000 24000000 28000000 2c000000   ...$...(...,...
 0030 30000000 34000000 38000000 3c000000  0...4...8...<...
 0040 40000000 44000000 48000000 4c000000  @...D...H...L...
 0050 50000000 54000000 58000000 5c000000  P...T...X...\...
 0060 60000000 64000000 68000000 6c000000  `...d...h...l...
 0070 70000000 74000000 77000000 7b000000  p...t...w...{...
 0080 7f000000 83000000 87000000 8b000000  ................
 0090 8f000000 93000000 97000000 9b000000  ................
 00a0 9f000000 a3000000 a7000000 aa000000  ................
 00b0 ae000000 b2000000 b6000000 ba000000  ................
 00c0 be000000 c2000000 c6000000 c9000000  ................
 00d0 cd000000 d1000000 d5000000 d9000000  ................
 00e0 dd000000 e0000000 e4000000 e8000000  ................
 00f0 ec000000 f0000000 f3000000 f7000000  ................
 0100 fb000000 ff000000 02010000 06010000  ................
 0110 0a010000 0e010000 11010000 15010000  ................
 0120 19010000 1c010000 20010000 24010000  ........ ...$...
 0130 28010000 2b010000 2f010000 33010000  (...+.../...3...
 0140 36010000 3a010000 3d010000 41010000  6...:...=...A...
 0150 45010000 48010000 4c010000 4f010000  E...H...L...O...
 0160 53010000 57010000 5a010000 5e010000  S...W...Z...^...
 0170 61010000 65010000 68010000 6c010000  a...e...h...l...
 0180 6f010000 73010000 76010000 7a010000  o...s...v...z...
 0190 7d010000 81010000 84010000 88010000  }...............
 01a0 8b010000 8f010000 92010000 95010000  ................
 01b0 99010000 9c010000 a0010000 a3010000  ................
 01c0 a6010000 aa010000 ad010000 b0010000  ................
 01d0 b4010000 b7010000 ba010000 be010000  ................
 01e0 c1010000 c4010000 c7010000 cb010000  ................
 01f0 ce010000 d1010000 d4010000 d8010000  ................
 0200 db010000 de010000 e1010000 e4010000  ................
 0210 e7010000 eb010000 ee010000 f1010000  ................
 0220 f4010000 f7010000 fa010000 fd010000  ................
 0230 00020000 04020000 07020000 0a020000  ................
 0240 0d020000 10020000 13020000 16020000  ................
 0250 19020000 1c020000 1f020000 22020000  ............"...
 0260 25020000 28020000 2b020000 2d020000  %...(...+...-...
 0270 30020000 33020000 36020000 39020000  0...3...6...9...
 0280 3c020000 3f020000 42020000 45020000  <...?...B...E...
 0290 47020000 4a020000 4d020000 50020000  G...J...M...P...
 02a0 53020000 55020000 58020000 5b020000  S...U...X...[...
 02b0 5e020000 61020000 63020000 66020000  ^...a...c...f...
 02c0 69020000 6b020000 6e020000 71020000  i...k...n...q...
 02d0 74020000 76020000 79020000 7c020000  t...v...y...|...
 02e0 7e020000 81020000 83020000 86020000  ~...............
 02f0 89020000 8b020000 8e020000 90020000  ................
 0300 93020000 96020000 98020000 9b020000  ................
 0310 9d020000 a0020000 a2020000 a5020000  ................
 0320 a7020000 aa020000 ac020000 af020000  ................
 0330 b1020000 b3020000 b6020000 b8020000  ................
 0340 bb020000 bd020000 bf020000 c2020000  ................
 0350 c4020000 c7020000 c9020000 cb020000  ................
 0360 ce020000 d0020000 d2020000 d5020000  ................
 0370 d7020000 d9020000 dc020000 de020000  ................
 0380 e0020000 e2020000 e5020000 e7020000  ................
 0390 e9020000 eb020000 ee020000 f0020000  ................
 03a0 f2020000 f4020000 f6020000 f8020000  ................
 03b0 fb020000 fd020000 ff020000 01030000  ................
 03c0 03030000 05030000 07030000 0a030000  ................
 03d0 0c030000 0e030000 10030000 12030000  ................
 03e0 14030000 16030000 18030000 1a030000  ................
 03f0 1c030000 1e030000 20030000 22030000  ........ ..."...
 0400 0001ff00 ff00ff00 ff00ff00 fe00fe00  ................
 0410 fd00fc00 fc00fb00 fa00f900 f800f700  ................
 0420 f600f400 f300f200 f000ee00 ed00eb00  ................
 0430 e900e800 e600e400 e200df00 dd00db00  ................
 0440 d900d600 d400d100 cf00cc00 c900c600  ................
 0450 c400c100 be00bb00 b800b500 b100ae00  ................
 0460 ab00a700 a400a100 9d009a00 96009200  ................
 0470 8f008b00 87008300 80007c00 78007400  ..........|.x.t.
 0480 70006c00 68006400 5f005b00 57005300  p.l.h.d._.[.W.S.
 0490 4f004a00 46004200 3d003900 35003000  O.J.F.B.=.9.5.0.
 04a0 2c002800 23001f00 1a001600 11000d00  ,.(.#...........
 04b0 08000400 0000fcff f8fff3ff efffeaff  ................
 04c0 e6ffe1ff ddffd8ff d4ffd0ff cbffc7ff  ................
 04d0 c3ffbeff baffb6ff b1ffadff a9ffa5ff  ................
 04e0 a1ff9cff 98ff94ff 90ff8cff 88ff84ff  ................
 04f0 81ff7dff 79ff75ff 71ff6eff 6aff66ff  ..}.y.u.q.n.j.f.
 0500 63ff5fff 5cff59ff 55ff52ff 4fff4bff  c._.\.Y.U.R.O.K.
 0510 48ff45ff 42ff3fff 3cff3aff 37ff34ff  H.E.B.?.<.:.7.4.
 0520 31ff2fff 2cff2aff 27ff25ff 23ff21ff  1./.,.*.'.%.#.!.
 0530 1eff1cff 1aff18ff 17ff15ff 13ff12ff  ................
 0540 10ff0eff 0dff0cff 0aff09ff 08ff07ff  ................
 0550 06ff05ff 04ff04ff 03ff02ff 02ff01ff  ................
 0560 01ff01ff 01ff01ff 01ff01ff 01ff01ff  ................
 0570 01ff01ff 02ff02ff 03ff04ff 04ff05ff  ................
 0580 06ff07ff 08ff09ff 0aff0cff 0dff0eff  ................
 0590 10ff12ff 13ff15ff 17ff18ff 1aff1cff  ................
 05a0 1eff21ff 23ff25ff 27ff2aff 2cff2fff  ..!.#.%.'.*.,./.
 05b0 31ff34ff 37ff3aff 3cff3fff 42ff45ff  1.4.7.:.<.?.B.E.
 05c0 48ff4bff 4fff52ff 55ff59ff 5cff5fff  H.K.O.R.U.Y.\._.
 05d0 63ff66ff 6aff6eff 71ff75ff 79ff7dff  c.f.j.n.q.u.y.}.
 05e0 80ff84ff 88ff8cff 90ff94ff 98ff9cff  ................
 05f0 a1ffa5ff a9ffadff b1ffb6ff baffbeff  ................
 0600 c3ffc7ff cbffd0ff d4ffd8ff ddffe1ff  ................
 0610 e6ffeaff effff3ff f8fffcff 00000400  ................
 0620 08000d00 11001600 1a001f00 23002800  ............#.(.
 0630 2c003000 35003900 3d004200 46004a00  ,.0.5.9.=.B.F.J.
 0640 4f005300 57005b00 5f006400 68006c00  O.S.W.[._.d.h.l.
 0650 70007400 78007c00 7f008300 87008b00  p.t.x.|.........
 0660 8f009200 96009a00 9d00a100 a400a700  ................
 0670 ab00ae00 b100b500 b800bb00 be00c100  ................
 0680 c400c600 c900cc00 cf00d100 d400d600  ................
 0690 d900db00 dd00df00 e200e400 e600e800  ................
 06a0 e900eb00 ed00ee00 f000f200 f300f400  ................
 06b0 f600f700 f800f900 fa00fb00 fc00fc00  ................
 06c0 fd00fe00 fe00ff00 ff00ff00 ff00ff00  ................
 06d0 00000400 08000d00 11001600 1a001f00  ................
 06e0 23002800 2c003000 35003900 3d004200  #.(.,.0.5.9.=.B.
 06f0 46004a00 4f005300 57005b00 5f006400  F.J.O.S.W.[._.d.
 0700 68006c00 70007400 78007c00 7f008300  h.l.p.t.x.|.....
 0710 87008b00 8f009200 96009a00 9d00a100  ................
 0720 a400a700 ab00ae00 b100b500 b800bb00  ................
 0730 be00c100 c400c600 c900cc00 cf00d100  ................
 0740 d400d600 d900db00 dd00df00 e200e400  ................
 0750 e600e800 e900eb00 ed00ee00 f000f200  ................
 0760 f300f400 f600f700 f800f900 fa00fb00  ................
 0770 fc00fc00 fd00fe00 fe00ff00 ff00ff00  ................
 0780 ff00ff00 ff00ff00 ff00ff00 ff00ff00  ................
 0790 fe00fe00 fd00fc00 fc00fb00 fa00f900  ................
 07a0 f800f700 f600f400 f300f200 f000ee00  ................
 07b0 ed00eb00 e900e800 e600e400 e200df00  ................
 07c0 dd00db00 d900d600 d400d100 cf00cc00  ................
 07d0 c900c600 c400c100 be00bb00 b800b500  ................
 07e0 b100ae00 ab00a700 a400a100 9d009a00  ................
 07f0 96009200 8f008b00 87008300 80007c00  ..............|.
 0800 78007400 70006c00 68006400 5f005b00  x.t.p.l.h.d._.[.
 0810 57005300 4f004a00 46004200 3d003900  W.S.O.J.F.B.=.9.
 0820 35003000 2c002800 23001f00 1a001600  5.0.,.(.#.......
 0830 11000d00 08000400 0000fcff f8fff3ff  ................
 0840 efffeaff e6ffe1ff ddffd8ff d4ffd0ff  ................
 0850 cbffc7ff c3ffbeff baffb6ff b1ffadff  ................
 0860 a9ffa5ff a1ff9cff 98ff94ff 90ff8cff  ................
 0870 88ff84ff 81ff7dff 79ff75ff 71ff6eff  ......}.y.u.q.n.
 0880 6aff66ff 63ff5fff 5cff59ff 55ff52ff  j.f.c._.\.Y.U.R.
 0890 4fff4bff 48ff45ff 42ff3fff 3cff3aff  O.K.H.E.B.?.<.:.
 08a0 37ff34ff 31ff2fff 2cff2aff 27ff25ff  7.4.1./.,.*.'.%.
 08b0 23ff21ff 1eff1cff 1aff18ff 17ff15ff  #.!.............
 08c0 13ff12ff 10ff0eff 0dff0cff 0aff09ff  ................
 08d0 08ff07ff 06ff05ff 04ff04ff 03ff02ff  ................
 08e0 02ff01ff 01ff01ff 01ff01ff 01ff01ff  ................
 08f0 01ff01ff 01ff01ff 02ff02ff 03ff04ff  ................
 0900 04ff05ff 06ff07ff 08ff09ff 0aff0cff  ................
 0910 0dff0eff 10ff12ff 13ff15ff 17ff18ff  ................
 0920 1aff1cff 1eff21ff 23ff25ff 27ff2aff  ......!.#.%.'.*.
 0930 2cff2fff 31ff34ff 37ff3aff 3cff3fff  ,./.1.4.7.:.<.?.
 0940 42ff45ff 48ff4bff 4fff52ff 55ff59ff  B.E.H.K.O.R.U.Y.
 0950 5cff5fff 63ff66ff 6aff6eff 71ff75ff  \._.c.f.j.n.q.u.
 0960 79ff7dff 80ff84ff 88ff8cff 90ff94ff  y.}.............
 0970 98ff9cff a1ffa5ff a9ffadff b1ffb6ff  ................
 0980 baffbeff c3ffc7ff cbffd0ff d4ffd8ff  ................
 0990 ddffe1ff e6ffeaff effff3ff f8fffcff  ................
Contents of section .comment:
 0000 00474343 3a202864 65766b69 7441524d  .GCC: (devkitARM
 0010 2072656c 65617365 20343929 20382e31   release 49) 8.1
 0020 2e3000                               .0.             
Contents of section .ARM.attributes:
 0000 41250000 00616561 62690001 1b000000  A%...aeabi......
 0010 05345400 06020801 09011204 17011801  .4T.............
 0020 19011a01 1e02                        ......          

Disassembly of section .text:

00000000 <hrt_CopyOAM>:
   0:	4b15      	ldr	r3, [pc, #84]	; (58 <hrt_CopyOAM+0x58>)
   2:	781b      	ldrb	r3, [r3, #0]
   4:	b510      	push	{r4, lr}
   6:	2b01      	cmp	r3, #1
   8:	d002      	beq.n	10 <hrt_CopyOAM+0x10>
   a:	bc10      	pop	{r4}
   c:	bc01      	pop	{r0}
   e:	4700      	bx	r0
  10:	2100      	movs	r1, #0
  12:	000c      	movs	r4, r1
  14:	4b11      	ldr	r3, [pc, #68]	; (5c <hrt_CopyOAM+0x5c>)
  16:	681a      	ldr	r2, [r3, #0]
  18:	4b11      	ldr	r3, [pc, #68]	; (60 <hrt_CopyOAM+0x60>)
  1a:	1d10      	adds	r0, r2, #4
  1c:	4283      	cmp	r3, r0
  1e:	414c      	adcs	r4, r1
  20:	0020      	movs	r0, r4
  22:	1d1c      	adds	r4, r3, #4
  24:	42a2      	cmp	r2, r4
  26:	4149      	adcs	r1, r1
  28:	4301      	orrs	r1, r0
  2a:	d00b      	beq.n	44 <hrt_CopyOAM+0x44>
  2c:	0011      	movs	r1, r2
  2e:	4319      	orrs	r1, r3
  30:	0789      	lsls	r1, r1, #30
  32:	d107      	bne.n	44 <hrt_CopyOAM+0x44>
  34:	2180      	movs	r1, #128	; 0x80
  36:	00c9      	lsls	r1, r1, #3
  38:	1858      	adds	r0, r3, r1
  3a:	cb02      	ldmia	r3!, {r1}
  3c:	c202      	stmia	r2!, {r1}
  3e:	4283      	cmp	r3, r0
  40:	d1fb      	bne.n	3a <hrt_CopyOAM+0x3a>
  42:	e7e2      	b.n	a <hrt_CopyOAM+0xa>
  44:	2480      	movs	r4, #128	; 0x80
  46:	2100      	movs	r1, #0
  48:	00e4      	lsls	r4, r4, #3
  4a:	5a58      	ldrh	r0, [r3, r1]
  4c:	5250      	strh	r0, [r2, r1]
  4e:	3102      	adds	r1, #2
  50:	42a1      	cmp	r1, r4
  52:	d1fa      	bne.n	4a <hrt_CopyOAM+0x4a>
  54:	e7d9      	b.n	a <hrt_CopyOAM+0xa>
  56:	46c0      	nop			; (mov r8, r8)
	...

00000064 <hrt_CreateOBJ>:
  64:	b5f0      	push	{r4, r5, r6, r7, lr}
  66:	4657      	mov	r7, sl
  68:	464e      	mov	r6, r9
  6a:	4645      	mov	r5, r8
  6c:	46de      	mov	lr, fp
  6e:	b5e0      	push	{r5, r6, r7, lr}
  70:	b085      	sub	sp, #20
  72:	ad11      	add	r5, sp, #68	; 0x44
  74:	782d      	ldrb	r5, [r5, #0]
  76:	46ac      	mov	ip, r5
  78:	ad12      	add	r5, sp, #72	; 0x48
  7a:	782d      	ldrb	r5, [r5, #0]
  7c:	46a9      	mov	r9, r5
  7e:	ad13      	add	r5, sp, #76	; 0x4c
  80:	782e      	ldrb	r6, [r5, #0]
  82:	ad14      	add	r5, sp, #80	; 0x50
  84:	782d      	ldrb	r5, [r5, #0]
  86:	ac0e      	add	r4, sp, #56	; 0x38
  88:	7824      	ldrb	r4, [r4, #0]
  8a:	9502      	str	r5, [sp, #8]
  8c:	ad15      	add	r5, sp, #84	; 0x54
  8e:	9203      	str	r2, [sp, #12]
  90:	9401      	str	r4, [sp, #4]
  92:	782f      	ldrb	r7, [r5, #0]
  94:	ac0f      	add	r4, sp, #60	; 0x3c
  96:	ad16      	add	r5, sp, #88	; 0x58
  98:	4a38      	ldr	r2, [pc, #224]	; (17c <hrt_CreateOBJ+0x118>)
  9a:	7824      	ldrb	r4, [r4, #0]
  9c:	782d      	ldrb	r5, [r5, #0]
  9e:	7812      	ldrb	r2, [r2, #0]
  a0:	46a2      	mov	sl, r4
  a2:	46a8      	mov	r8, r5
  a4:	ac10      	add	r4, sp, #64	; 0x40
  a6:	ad17      	add	r5, sp, #92	; 0x5c
  a8:	7824      	ldrb	r4, [r4, #0]
  aa:	782d      	ldrb	r5, [r5, #0]
  ac:	2a01      	cmp	r2, #1
  ae:	d008      	beq.n	c2 <hrt_CreateOBJ+0x5e>
  b0:	b005      	add	sp, #20
  b2:	bc3c      	pop	{r2, r3, r4, r5}
  b4:	4690      	mov	r8, r2
  b6:	4699      	mov	r9, r3
  b8:	46a2      	mov	sl, r4
  ba:	46ab      	mov	fp, r5
  bc:	bcf0      	pop	{r4, r5, r6, r7}
  be:	bc01      	pop	{r0}
  c0:	4700      	bx	r0
  c2:	4662      	mov	r2, ip
  c4:	0392      	lsls	r2, r2, #14
  c6:	0412      	lsls	r2, r2, #16
  c8:	1412      	asrs	r2, r2, #16
  ca:	4694      	mov	ip, r2
  cc:	4642      	mov	r2, r8
  ce:	0292      	lsls	r2, r2, #10
  d0:	0412      	lsls	r2, r2, #16
  d2:	1412      	asrs	r2, r2, #16
  d4:	4690      	mov	r8, r2
  d6:	464a      	mov	r2, r9
  d8:	0652      	lsls	r2, r2, #25
  da:	0c12      	lsrs	r2, r2, #16
  dc:	4691      	mov	r9, r2
  de:	4652      	mov	r2, sl
  e0:	0364      	lsls	r4, r4, #13
  e2:	430c      	orrs	r4, r1
  e4:	0311      	lsls	r1, r2, #12
  e6:	430c      	orrs	r4, r1
  e8:	039b      	lsls	r3, r3, #14
  ea:	4323      	orrs	r3, r4
  ec:	2480      	movs	r4, #128	; 0x80
  ee:	00a4      	lsls	r4, r4, #2
  f0:	46a2      	mov	sl, r4
  f2:	9a02      	ldr	r2, [sp, #8]
  f4:	0311      	lsls	r1, r2, #12
  f6:	9a18      	ldr	r2, [sp, #96]	; 0x60
  f8:	02ad      	lsls	r5, r5, #10
  fa:	430d      	orrs	r5, r1
  fc:	4452      	add	r2, sl
  fe:	4315      	orrs	r5, r2
 100:	037f      	lsls	r7, r7, #13
 102:	0336      	lsls	r6, r6, #12
 104:	9a01      	ldr	r2, [sp, #4]
 106:	043f      	lsls	r7, r7, #16
 108:	0436      	lsls	r6, r6, #16
 10a:	041b      	lsls	r3, r3, #16
 10c:	042d      	lsls	r5, r5, #16
 10e:	143f      	asrs	r7, r7, #16
 110:	1436      	asrs	r6, r6, #16
 112:	141b      	asrs	r3, r3, #16
 114:	0c2d      	lsrs	r5, r5, #16
 116:	491a      	ldr	r1, [pc, #104]	; (180 <hrt_CreateOBJ+0x11c>)
 118:	2a01      	cmp	r2, #1
 11a:	d00f      	beq.n	13c <hrt_CreateOBJ+0xd8>
 11c:	464a      	mov	r2, r9
 11e:	9c03      	ldr	r4, [sp, #12]
 120:	4322      	orrs	r2, r4
 122:	4316      	orrs	r6, r2
 124:	4642      	mov	r2, r8
 126:	4332      	orrs	r2, r6
 128:	0016      	movs	r6, r2
 12a:	4662      	mov	r2, ip
 12c:	4332      	orrs	r2, r6
 12e:	00c0      	lsls	r0, r0, #3
 130:	4317      	orrs	r7, r2
 132:	5247      	strh	r7, [r0, r1]
 134:	1808      	adds	r0, r1, r0
 136:	8043      	strh	r3, [r0, #2]
 138:	8085      	strh	r5, [r0, #4]
 13a:	e7b9      	b.n	b0 <hrt_CreateOBJ+0x4c>
 13c:	4642      	mov	r2, r8
 13e:	4332      	orrs	r2, r6
 140:	0016      	movs	r6, r2
 142:	4662      	mov	r2, ip
 144:	4332      	orrs	r2, r6
 146:	4317      	orrs	r7, r2
 148:	9a03      	ldr	r2, [sp, #12]
 14a:	4317      	orrs	r7, r2
 14c:	464a      	mov	r2, r9
 14e:	433a      	orrs	r2, r7
 150:	0017      	movs	r7, r2
 152:	2280      	movs	r2, #128	; 0x80
 154:	0052      	lsls	r2, r2, #1
 156:	00c4      	lsls	r4, r0, #3
 158:	4317      	orrs	r7, r2
 15a:	5267      	strh	r7, [r4, r1]
 15c:	1909      	adds	r1, r1, r4
 15e:	0244      	lsls	r4, r0, #9
 160:	4323      	orrs	r3, r4
 162:	804b      	strh	r3, [r1, #2]
 164:	4b07      	ldr	r3, [pc, #28]	; (184 <hrt_CreateOBJ+0x120>)
 166:	685b      	ldr	r3, [r3, #4]
 168:	0140      	lsls	r0, r0, #5
 16a:	1818      	adds	r0, r3, r0
 16c:	2300      	movs	r3, #0
 16e:	808d      	strh	r5, [r1, #4]
 170:	80c2      	strh	r2, [r0, #6]
 172:	81c3      	strh	r3, [r0, #14]
 174:	82c3      	strh	r3, [r0, #22]
 176:	83c2      	strh	r2, [r0, #30]
 178:	e79a      	b.n	b0 <hrt_CreateOBJ+0x4c>
 17a:	46c0      	nop			; (mov r8, r8)
	...

00000188 <hrt_AffineOBJ>:
 188:	b5f8      	push	{r3, r4, r5, r6, r7, lr}
 18a:	001e      	movs	r6, r3
 18c:	4b14      	ldr	r3, [pc, #80]	; (1e0 <hrt_AffineOBJ+0x58>)
 18e:	781b      	ldrb	r3, [r3, #0]
 190:	0005      	movs	r5, r0
 192:	0017      	movs	r7, r2
 194:	0008      	movs	r0, r1
 196:	2b01      	cmp	r3, #1
 198:	d11f      	bne.n	1da <hrt_AffineOBJ+0x52>
 19a:	21b4      	movs	r1, #180	; 0xb4
 19c:	4b11      	ldr	r3, [pc, #68]	; (1e4 <hrt_AffineOBJ+0x5c>)
 19e:	0049      	lsls	r1, r1, #1
 1a0:	f000 fb6e 	bl	880 <hrt_GetOBJMode+0x24>
 1a4:	4b10      	ldr	r3, [pc, #64]	; (1e8 <hrt_AffineOBJ+0x60>)
 1a6:	0049      	lsls	r1, r1, #1
 1a8:	5eca      	ldrsh	r2, [r1, r3]
 1aa:	4694      	mov	ip, r2
 1ac:	4a0f      	ldr	r2, [pc, #60]	; (1ec <hrt_AffineOBJ+0x64>)
 1ae:	5e8a      	ldrsh	r2, [r1, r2]
 1b0:	490f      	ldr	r1, [pc, #60]	; (1f0 <hrt_AffineOBJ+0x68>)
 1b2:	6848      	ldr	r0, [r1, #4]
 1b4:	4661      	mov	r1, ip
 1b6:	4379      	muls	r1, r7
 1b8:	016d      	lsls	r5, r5, #5
 1ba:	1940      	adds	r0, r0, r5
 1bc:	1209      	asrs	r1, r1, #8
 1be:	80c1      	strh	r1, [r0, #6]
 1c0:	0011      	movs	r1, r2
 1c2:	4371      	muls	r1, r6
 1c4:	4252      	negs	r2, r2
 1c6:	003c      	movs	r4, r7
 1c8:	4354      	muls	r4, r2
 1ca:	4663      	mov	r3, ip
 1cc:	4373      	muls	r3, r6
 1ce:	1209      	asrs	r1, r1, #8
 1d0:	1224      	asrs	r4, r4, #8
 1d2:	121b      	asrs	r3, r3, #8
 1d4:	81c1      	strh	r1, [r0, #14]
 1d6:	82c4      	strh	r4, [r0, #22]
 1d8:	83c3      	strh	r3, [r0, #30]
 1da:	bcf8      	pop	{r3, r4, r5, r6, r7}
 1dc:	bc01      	pop	{r0}
 1de:	4700      	bx	r0
	...

000001f4 <hrt_SetOBJX>:
 1f4:	4a06      	ldr	r2, [pc, #24]	; (210 <hrt_SetOBJX+0x1c>)
 1f6:	7812      	ldrb	r2, [r2, #0]
 1f8:	2a01      	cmp	r2, #1
 1fa:	d107      	bne.n	20c <hrt_SetOBJX+0x18>
 1fc:	4a05      	ldr	r2, [pc, #20]	; (214 <hrt_SetOBJX+0x20>)
 1fe:	00c0      	lsls	r0, r0, #3
 200:	1810      	adds	r0, r2, r0
 202:	8843      	ldrh	r3, [r0, #2]
 204:	0a5b      	lsrs	r3, r3, #9
 206:	025b      	lsls	r3, r3, #9
 208:	430b      	orrs	r3, r1
 20a:	8043      	strh	r3, [r0, #2]
 20c:	4770      	bx	lr
 20e:	46c0      	nop			; (mov r8, r8)
	...

00000218 <hrt_SetOBJY>:
 218:	4a07      	ldr	r2, [pc, #28]	; (238 <hrt_SetOBJY+0x20>)
 21a:	7812      	ldrb	r2, [r2, #0]
 21c:	b510      	push	{r4, lr}
 21e:	2a01      	cmp	r2, #1
 220:	d106      	bne.n	230 <hrt_SetOBJY+0x18>
 222:	24ff      	movs	r4, #255	; 0xff
 224:	4a05      	ldr	r2, [pc, #20]	; (23c <hrt_SetOBJY+0x24>)
 226:	00c0      	lsls	r0, r0, #3
 228:	5a83      	ldrh	r3, [r0, r2]
 22a:	43a3      	bics	r3, r4
 22c:	430b      	orrs	r3, r1
 22e:	5283      	strh	r3, [r0, r2]
 230:	bc10      	pop	{r4}
 232:	bc01      	pop	{r0}
 234:	4700      	bx	r0
 236:	46c0      	nop			; (mov r8, r8)
	...

00000240 <hrt_SetOBJXY>:
 240:	4b0a      	ldr	r3, [pc, #40]	; (26c <hrt_SetOBJXY+0x2c>)
 242:	b530      	push	{r4, r5, lr}
 244:	781c      	ldrb	r4, [r3, #0]
 246:	2c01      	cmp	r4, #1
 248:	d10c      	bne.n	264 <hrt_SetOBJXY+0x24>
 24a:	23ff      	movs	r3, #255	; 0xff
 24c:	4c08      	ldr	r4, [pc, #32]	; (270 <hrt_SetOBJXY+0x30>)
 24e:	00c0      	lsls	r0, r0, #3
 250:	5b05      	ldrh	r5, [r0, r4]
 252:	439d      	bics	r5, r3
 254:	4315      	orrs	r5, r2
 256:	5305      	strh	r5, [r0, r4]
 258:	1820      	adds	r0, r4, r0
 25a:	8843      	ldrh	r3, [r0, #2]
 25c:	0a5b      	lsrs	r3, r3, #9
 25e:	025b      	lsls	r3, r3, #9
 260:	430b      	orrs	r3, r1
 262:	8043      	strh	r3, [r0, #2]
 264:	bc30      	pop	{r4, r5}
 266:	bc01      	pop	{r0}
 268:	4700      	bx	r0
 26a:	46c0      	nop			; (mov r8, r8)
	...

00000274 <hrt_CloneOBJ>:
 274:	4b07      	ldr	r3, [pc, #28]	; (294 <hrt_CloneOBJ+0x20>)
 276:	781b      	ldrb	r3, [r3, #0]
 278:	2b01      	cmp	r3, #1
 27a:	d10a      	bne.n	292 <hrt_CloneOBJ+0x1e>
 27c:	4b06      	ldr	r3, [pc, #24]	; (298 <hrt_CloneOBJ+0x24>)
 27e:	00c0      	lsls	r0, r0, #3
 280:	5ac2      	ldrh	r2, [r0, r3]
 282:	00c9      	lsls	r1, r1, #3
 284:	52ca      	strh	r2, [r1, r3]
 286:	1818      	adds	r0, r3, r0
 288:	8842      	ldrh	r2, [r0, #2]
 28a:	185b      	adds	r3, r3, r1
 28c:	805a      	strh	r2, [r3, #2]
 28e:	8882      	ldrh	r2, [r0, #4]
 290:	809a      	strh	r2, [r3, #4]
 292:	4770      	bx	lr
	...

0000029c <hrt_MoveSpriteInDirection>:
 29c:	b5f0      	push	{r4, r5, r6, r7, lr}
 29e:	464f      	mov	r7, r9
 2a0:	46d6      	mov	lr, sl
 2a2:	4646      	mov	r6, r8
 2a4:	4b1b      	ldr	r3, [pc, #108]	; (314 <hrt_MoveSpriteInDirection+0x78>)
 2a6:	781b      	ldrb	r3, [r3, #0]
 2a8:	b5c0      	push	{r6, r7, lr}
 2aa:	4691      	mov	r9, r2
 2ac:	2b01      	cmp	r3, #1
 2ae:	d006      	beq.n	2be <hrt_MoveSpriteInDirection+0x22>
 2b0:	bc1c      	pop	{r2, r3, r4}
 2b2:	4690      	mov	r8, r2
 2b4:	4699      	mov	r9, r3
 2b6:	46a2      	mov	sl, r4
 2b8:	bcf0      	pop	{r4, r5, r6, r7}
 2ba:	bc01      	pop	{r0}
 2bc:	4700      	bx	r0
 2be:	4f16      	ldr	r7, [pc, #88]	; (318 <hrt_MoveSpriteInDirection+0x7c>)
 2c0:	00c0      	lsls	r0, r0, #3
 2c2:	5bc2      	ldrh	r2, [r0, r7]
 2c4:	2480      	movs	r4, #128	; 0x80
 2c6:	4694      	mov	ip, r2
 2c8:	004a      	lsls	r2, r1, #1
 2ca:	4914      	ldr	r1, [pc, #80]	; (31c <hrt_MoveSpriteInDirection+0x80>)
 2cc:	4690      	mov	r8, r2
 2ce:	5e51      	ldrsh	r1, [r2, r1]
 2d0:	464a      	mov	r2, r9
 2d2:	468a      	mov	sl, r1
 2d4:	183d      	adds	r5, r7, r0
 2d6:	886b      	ldrh	r3, [r5, #2]
 2d8:	04e4      	lsls	r4, r4, #19
 2da:	0b9e      	lsrs	r6, r3, #14
 2dc:	40b4      	lsls	r4, r6
 2de:	4651      	mov	r1, sl
 2e0:	4351      	muls	r1, r2
 2e2:	4642      	mov	r2, r8
 2e4:	0e24      	lsrs	r4, r4, #24
 2e6:	191e      	adds	r6, r3, r4
 2e8:	1876      	adds	r6, r6, r1
 2ea:	490d      	ldr	r1, [pc, #52]	; (320 <hrt_MoveSpriteInDirection+0x84>)
 2ec:	5e51      	ldrsh	r1, [r2, r1]
 2ee:	464a      	mov	r2, r9
 2f0:	434a      	muls	r2, r1
 2f2:	4464      	add	r4, ip
 2f4:	18a2      	adds	r2, r4, r2
 2f6:	21ff      	movs	r1, #255	; 0xff
 2f8:	4664      	mov	r4, ip
 2fa:	0636      	lsls	r6, r6, #24
 2fc:	0612      	lsls	r2, r2, #24
 2fe:	0a5b      	lsrs	r3, r3, #9
 300:	0e36      	lsrs	r6, r6, #24
 302:	0e12      	lsrs	r2, r2, #24
 304:	438c      	bics	r4, r1
 306:	025b      	lsls	r3, r3, #9
 308:	4322      	orrs	r2, r4
 30a:	4333      	orrs	r3, r6
 30c:	53c2      	strh	r2, [r0, r7]
 30e:	806b      	strh	r3, [r5, #2]
 310:	e7ce      	b.n	2b0 <hrt_MoveSpriteInDirection+0x14>
 312:	46c0      	nop			; (mov r8, r8)
	...

00000324 <math_atan2>:
 324:	b570      	push	{r4, r5, r6, lr}
 326:	020d      	lsls	r5, r1, #8
 328:	17ea      	asrs	r2, r5, #31
 32a:	0204      	lsls	r4, r0, #8
 32c:	18ab      	adds	r3, r5, r2
 32e:	4053      	eors	r3, r2
 330:	17e2      	asrs	r2, r4, #31
 332:	18a1      	adds	r1, r4, r2
 334:	4051      	eors	r1, r2
 336:	428b      	cmp	r3, r1
 338:	db11      	blt.n	35e <math_atan2+0x3a>
 33a:	0208      	lsls	r0, r1, #8
 33c:	0019      	movs	r1, r3
 33e:	4b13      	ldr	r3, [pc, #76]	; (38c <math_atan2+0x68>)
 340:	f000 fa9e 	bl	880 <hrt_GetOBJMode+0x24>
 344:	4b12      	ldr	r3, [pc, #72]	; (390 <math_atan2+0x6c>)
 346:	0080      	lsls	r0, r0, #2
 348:	58c0      	ldr	r0, [r0, r3]
 34a:	2d00      	cmp	r5, #0
 34c:	db13      	blt.n	376 <math_atan2+0x52>
 34e:	1080      	asrs	r0, r0, #2
 350:	2c00      	cmp	r4, #0
 352:	db02      	blt.n	35a <math_atan2+0x36>
 354:	bc70      	pop	{r4, r5, r6}
 356:	bc02      	pop	{r1}
 358:	4708      	bx	r1
 35a:	4240      	negs	r0, r0
 35c:	e7fa      	b.n	354 <math_atan2+0x30>
 35e:	0218      	lsls	r0, r3, #8
 360:	4b0a      	ldr	r3, [pc, #40]	; (38c <math_atan2+0x68>)
 362:	f000 fa8d 	bl	880 <hrt_GetOBJMode+0x24>
 366:	4b0a      	ldr	r3, [pc, #40]	; (390 <math_atan2+0x6c>)
 368:	0080      	lsls	r0, r0, #2
 36a:	58c0      	ldr	r0, [r0, r3]
 36c:	23c9      	movs	r3, #201	; 0xc9
 36e:	00db      	lsls	r3, r3, #3
 370:	1a18      	subs	r0, r3, r0
 372:	2d00      	cmp	r5, #0
 374:	daeb      	bge.n	34e <math_atan2+0x2a>
 376:	2c00      	cmp	r4, #0
 378:	db03      	blt.n	382 <math_atan2+0x5e>
 37a:	4b06      	ldr	r3, [pc, #24]	; (394 <math_atan2+0x70>)
 37c:	1a18      	subs	r0, r3, r0
 37e:	1080      	asrs	r0, r0, #2
 380:	e7e8      	b.n	354 <math_atan2+0x30>
 382:	4b05      	ldr	r3, [pc, #20]	; (398 <math_atan2+0x74>)
 384:	469c      	mov	ip, r3
 386:	4460      	add	r0, ip
 388:	1080      	asrs	r0, r0, #2
 38a:	e7e3      	b.n	354 <math_atan2+0x30>
	...
 394:	00000c91 	muleq	r0, r1, ip
 398:	fffff36f 			; <UNDEFINED> instruction: 0xfffff36f

0000039c <hrt_PointOBJTowardsPosition>:
 39c:	4b28      	ldr	r3, [pc, #160]	; (440 <hrt_PointOBJTowardsPosition+0xa4>)
 39e:	781b      	ldrb	r3, [r3, #0]
 3a0:	b570      	push	{r4, r5, r6, lr}
 3a2:	0004      	movs	r4, r0
 3a4:	2000      	movs	r0, #0
 3a6:	2b01      	cmp	r3, #1
 3a8:	d002      	beq.n	3b0 <hrt_PointOBJTowardsPosition+0x14>
 3aa:	bc70      	pop	{r4, r5, r6}
 3ac:	bc02      	pop	{r1}
 3ae:	4708      	bx	r1
 3b0:	4e24      	ldr	r6, [pc, #144]	; (444 <hrt_PointOBJTowardsPosition+0xa8>)
 3b2:	00e0      	lsls	r0, r4, #3
 3b4:	1833      	adds	r3, r6, r0
 3b6:	885c      	ldrh	r4, [r3, #2]
 3b8:	2380      	movs	r3, #128	; 0x80
 3ba:	0ba5      	lsrs	r5, r4, #14
 3bc:	04db      	lsls	r3, r3, #19
 3be:	40ab      	lsls	r3, r5
 3c0:	0e1b      	lsrs	r3, r3, #24
 3c2:	18e4      	adds	r4, r4, r3
 3c4:	0624      	lsls	r4, r4, #24
 3c6:	0e24      	lsrs	r4, r4, #24
 3c8:	1b0d      	subs	r5, r1, r4
 3ca:	5631      	ldrsb	r1, [r6, r0]
 3cc:	185b      	adds	r3, r3, r1
 3ce:	061b      	lsls	r3, r3, #24
 3d0:	022d      	lsls	r5, r5, #8
 3d2:	0e1b      	lsrs	r3, r3, #24
 3d4:	1ad4      	subs	r4, r2, r3
 3d6:	17ea      	asrs	r2, r5, #31
 3d8:	0224      	lsls	r4, r4, #8
 3da:	18ab      	adds	r3, r5, r2
 3dc:	4053      	eors	r3, r2
 3de:	17e2      	asrs	r2, r4, #31
 3e0:	18a1      	adds	r1, r4, r2
 3e2:	4051      	eors	r1, r2
 3e4:	4299      	cmp	r1, r3
 3e6:	dd17      	ble.n	418 <hrt_PointOBJTowardsPosition+0x7c>
 3e8:	0218      	lsls	r0, r3, #8
 3ea:	4b17      	ldr	r3, [pc, #92]	; (448 <hrt_PointOBJTowardsPosition+0xac>)
 3ec:	f000 fa48 	bl	880 <hrt_GetOBJMode+0x24>
 3f0:	4b16      	ldr	r3, [pc, #88]	; (44c <hrt_PointOBJTowardsPosition+0xb0>)
 3f2:	0080      	lsls	r0, r0, #2
 3f4:	58c3      	ldr	r3, [r0, r3]
 3f6:	20c9      	movs	r0, #201	; 0xc9
 3f8:	00c0      	lsls	r0, r0, #3
 3fa:	1ac0      	subs	r0, r0, r3
 3fc:	2d00      	cmp	r5, #0
 3fe:	db14      	blt.n	42a <hrt_PointOBJTowardsPosition+0x8e>
 400:	1080      	asrs	r0, r0, #2
 402:	2c00      	cmp	r4, #0
 404:	da00      	bge.n	408 <hrt_PointOBJTowardsPosition+0x6c>
 406:	4240      	negs	r0, r0
 408:	21b4      	movs	r1, #180	; 0xb4
 40a:	4b11      	ldr	r3, [pc, #68]	; (450 <hrt_PointOBJTowardsPosition+0xb4>)
 40c:	0049      	lsls	r1, r1, #1
 40e:	f000 fa37 	bl	880 <hrt_GetOBJMode+0x24>
 412:	0408      	lsls	r0, r1, #16
 414:	0c00      	lsrs	r0, r0, #16
 416:	e7c8      	b.n	3aa <hrt_PointOBJTowardsPosition+0xe>
 418:	0208      	lsls	r0, r1, #8
 41a:	0019      	movs	r1, r3
 41c:	4b0a      	ldr	r3, [pc, #40]	; (448 <hrt_PointOBJTowardsPosition+0xac>)
 41e:	f000 fa2f 	bl	880 <hrt_GetOBJMode+0x24>
 422:	4b0a      	ldr	r3, [pc, #40]	; (44c <hrt_PointOBJTowardsPosition+0xb0>)
 424:	0080      	lsls	r0, r0, #2
 426:	58c0      	ldr	r0, [r0, r3]
 428:	e7e8      	b.n	3fc <hrt_PointOBJTowardsPosition+0x60>
 42a:	2c00      	cmp	r4, #0
 42c:	db03      	blt.n	436 <hrt_PointOBJTowardsPosition+0x9a>
 42e:	4b09      	ldr	r3, [pc, #36]	; (454 <hrt_PointOBJTowardsPosition+0xb8>)
 430:	1a18      	subs	r0, r3, r0
 432:	1080      	asrs	r0, r0, #2
 434:	e7e8      	b.n	408 <hrt_PointOBJTowardsPosition+0x6c>
 436:	4b08      	ldr	r3, [pc, #32]	; (458 <hrt_PointOBJTowardsPosition+0xbc>)
 438:	469c      	mov	ip, r3
 43a:	4460      	add	r0, ip
 43c:	1080      	asrs	r0, r0, #2
 43e:	e7e3      	b.n	408 <hrt_PointOBJTowardsPosition+0x6c>
	...
 454:	00000c91 	muleq	r0, r1, ip
 458:	fffff36f 			; <UNDEFINED> instruction: 0xfffff36f

0000045c <hrt_GetOBJX>:
 45c:	4b08      	ldr	r3, [pc, #32]	; (480 <hrt_GetOBJX+0x24>)
 45e:	781a      	ldrb	r2, [r3, #0]
 460:	2300      	movs	r3, #0
 462:	2a01      	cmp	r2, #1
 464:	d001      	beq.n	46a <hrt_GetOBJX+0xe>
 466:	0018      	movs	r0, r3
 468:	4770      	bx	lr
 46a:	4b06      	ldr	r3, [pc, #24]	; (484 <hrt_GetOBJX+0x28>)
 46c:	00c0      	lsls	r0, r0, #3
 46e:	1818      	adds	r0, r3, r0
 470:	8843      	ldrh	r3, [r0, #2]
 472:	2004      	movs	r0, #4
 474:	0b9a      	lsrs	r2, r3, #14
 476:	4090      	lsls	r0, r2
 478:	181b      	adds	r3, r3, r0
 47a:	061b      	lsls	r3, r3, #24
 47c:	0e1b      	lsrs	r3, r3, #24
 47e:	e7f2      	b.n	466 <hrt_GetOBJX+0xa>
	...

00000488 <hrt_GetOBJY>:
 488:	4b09      	ldr	r3, [pc, #36]	; (4b0 <hrt_GetOBJY+0x28>)
 48a:	781b      	ldrb	r3, [r3, #0]
 48c:	0002      	movs	r2, r0
 48e:	2000      	movs	r0, #0
 490:	2b01      	cmp	r3, #1
 492:	d000      	beq.n	496 <hrt_GetOBJY+0xe>
 494:	4770      	bx	lr
 496:	4b07      	ldr	r3, [pc, #28]	; (4b4 <hrt_GetOBJY+0x2c>)
 498:	00d2      	lsls	r2, r2, #3
 49a:	5698      	ldrsb	r0, [r3, r2]
 49c:	189a      	adds	r2, r3, r2
 49e:	2304      	movs	r3, #4
 4a0:	8852      	ldrh	r2, [r2, #2]
 4a2:	0b92      	lsrs	r2, r2, #14
 4a4:	4093      	lsls	r3, r2
 4a6:	18c0      	adds	r0, r0, r3
 4a8:	0600      	lsls	r0, r0, #24
 4aa:	0e00      	lsrs	r0, r0, #24
 4ac:	e7f2      	b.n	494 <hrt_GetOBJY+0xc>
 4ae:	46c0      	nop			; (mov r8, r8)
	...

000004b8 <hrt_EnableOBJHFlip>:
 4b8:	4b06      	ldr	r3, [pc, #24]	; (4d4 <hrt_EnableOBJHFlip+0x1c>)
 4ba:	781b      	ldrb	r3, [r3, #0]
 4bc:	2b01      	cmp	r3, #1
 4be:	d107      	bne.n	4d0 <hrt_EnableOBJHFlip+0x18>
 4c0:	4b05      	ldr	r3, [pc, #20]	; (4d8 <hrt_EnableOBJHFlip+0x20>)
 4c2:	00c0      	lsls	r0, r0, #3
 4c4:	1818      	adds	r0, r3, r0
 4c6:	2380      	movs	r3, #128	; 0x80
 4c8:	8842      	ldrh	r2, [r0, #2]
 4ca:	015b      	lsls	r3, r3, #5
 4cc:	4313      	orrs	r3, r2
 4ce:	8043      	strh	r3, [r0, #2]
 4d0:	4770      	bx	lr
 4d2:	46c0      	nop			; (mov r8, r8)
	...

000004dc <hrt_DisableOBJHFlip>:
 4dc:	4b05      	ldr	r3, [pc, #20]	; (4f4 <hrt_DisableOBJHFlip+0x18>)
 4de:	781b      	ldrb	r3, [r3, #0]
 4e0:	2b01      	cmp	r3, #1
 4e2:	d106      	bne.n	4f2 <hrt_DisableOBJHFlip+0x16>
 4e4:	4b04      	ldr	r3, [pc, #16]	; (4f8 <hrt_DisableOBJHFlip+0x1c>)
 4e6:	00c0      	lsls	r0, r0, #3
 4e8:	1818      	adds	r0, r3, r0
 4ea:	8843      	ldrh	r3, [r0, #2]
 4ec:	4a03      	ldr	r2, [pc, #12]	; (4fc <hrt_DisableOBJHFlip+0x20>)
 4ee:	4013      	ands	r3, r2
 4f0:	8043      	strh	r3, [r0, #2]
 4f2:	4770      	bx	lr
	...
 4fc:	ffffefff 			; <UNDEFINED> instruction: 0xffffefff

00000500 <hrt_EnableOBJVFlip>:
 500:	4b06      	ldr	r3, [pc, #24]	; (51c <hrt_EnableOBJVFlip+0x1c>)
 502:	781b      	ldrb	r3, [r3, #0]
 504:	2b01      	cmp	r3, #1
 506:	d107      	bne.n	518 <hrt_EnableOBJVFlip+0x18>
 508:	4b05      	ldr	r3, [pc, #20]	; (520 <hrt_EnableOBJVFlip+0x20>)
 50a:	00c0      	lsls	r0, r0, #3
 50c:	1818      	adds	r0, r3, r0
 50e:	2380      	movs	r3, #128	; 0x80
 510:	8842      	ldrh	r2, [r0, #2]
 512:	019b      	lsls	r3, r3, #6
 514:	4313      	orrs	r3, r2
 516:	8043      	strh	r3, [r0, #2]
 518:	4770      	bx	lr
 51a:	46c0      	nop			; (mov r8, r8)
	...

00000524 <hrt_DisableOBJVFlip>:
 524:	4b05      	ldr	r3, [pc, #20]	; (53c <hrt_DisableOBJVFlip+0x18>)
 526:	781b      	ldrb	r3, [r3, #0]
 528:	2b01      	cmp	r3, #1
 52a:	d106      	bne.n	53a <hrt_DisableOBJVFlip+0x16>
 52c:	4b04      	ldr	r3, [pc, #16]	; (540 <hrt_DisableOBJVFlip+0x1c>)
 52e:	00c0      	lsls	r0, r0, #3
 530:	1818      	adds	r0, r3, r0
 532:	8843      	ldrh	r3, [r0, #2]
 534:	4a03      	ldr	r2, [pc, #12]	; (544 <hrt_DisableOBJVFlip+0x20>)
 536:	4013      	ands	r3, r2
 538:	8043      	strh	r3, [r0, #2]
 53a:	4770      	bx	lr
	...
 544:	ffffdfff 			; <UNDEFINED> instruction: 0xffffdfff

00000548 <hrt_SetOBJMode>:
 548:	4b05      	ldr	r3, [pc, #20]	; (560 <hrt_SetOBJMode+0x18>)
 54a:	781b      	ldrb	r3, [r3, #0]
 54c:	2b01      	cmp	r3, #1
 54e:	d105      	bne.n	55c <hrt_SetOBJMode+0x14>
 550:	4a04      	ldr	r2, [pc, #16]	; (564 <hrt_SetOBJMode+0x1c>)
 552:	00c0      	lsls	r0, r0, #3
 554:	5a83      	ldrh	r3, [r0, r2]
 556:	0289      	lsls	r1, r1, #10
 558:	4319      	orrs	r1, r3
 55a:	5281      	strh	r1, [r0, r2]
 55c:	4770      	bx	lr
 55e:	46c0      	nop			; (mov r8, r8)
	...

00000568 <hrt_EnableOBJMosaic>:
 568:	4b05      	ldr	r3, [pc, #20]	; (580 <hrt_EnableOBJMosaic+0x18>)
 56a:	781b      	ldrb	r3, [r3, #0]
 56c:	2b01      	cmp	r3, #1
 56e:	d106      	bne.n	57e <hrt_EnableOBJMosaic+0x16>
 570:	2380      	movs	r3, #128	; 0x80
 572:	4a04      	ldr	r2, [pc, #16]	; (584 <hrt_EnableOBJMosaic+0x1c>)
 574:	00c0      	lsls	r0, r0, #3
 576:	5a81      	ldrh	r1, [r0, r2]
 578:	015b      	lsls	r3, r3, #5
 57a:	430b      	orrs	r3, r1
 57c:	5283      	strh	r3, [r0, r2]
 57e:	4770      	bx	lr
	...

00000588 <hrt_DisableOBJMosaic>:
 588:	4b05      	ldr	r3, [pc, #20]	; (5a0 <hrt_DisableOBJMosaic+0x18>)
 58a:	781b      	ldrb	r3, [r3, #0]
 58c:	2b01      	cmp	r3, #1
 58e:	d105      	bne.n	59c <hrt_DisableOBJMosaic+0x14>
 590:	4a04      	ldr	r2, [pc, #16]	; (5a4 <hrt_DisableOBJMosaic+0x1c>)
 592:	00c0      	lsls	r0, r0, #3
 594:	5a83      	ldrh	r3, [r0, r2]
 596:	4904      	ldr	r1, [pc, #16]	; (5a8 <hrt_DisableOBJMosaic+0x20>)
 598:	400b      	ands	r3, r1
 59a:	5283      	strh	r3, [r0, r2]
 59c:	4770      	bx	lr
 59e:	46c0      	nop			; (mov r8, r8)
	...
 5a8:	ffffefff 			; <UNDEFINED> instruction: 0xffffefff

000005ac <hrt_SetOBJColor16>:
 5ac:	4b05      	ldr	r3, [pc, #20]	; (5c4 <hrt_SetOBJColor16+0x18>)
 5ae:	781b      	ldrb	r3, [r3, #0]
 5b0:	2b01      	cmp	r3, #1
 5b2:	d105      	bne.n	5c0 <hrt_SetOBJColor16+0x14>
 5b4:	4a04      	ldr	r2, [pc, #16]	; (5c8 <hrt_SetOBJColor16+0x1c>)
 5b6:	00c0      	lsls	r0, r0, #3
 5b8:	5a83      	ldrh	r3, [r0, r2]
 5ba:	4904      	ldr	r1, [pc, #16]	; (5cc <hrt_SetOBJColor16+0x20>)
 5bc:	400b      	ands	r3, r1
 5be:	5283      	strh	r3, [r0, r2]
 5c0:	4770      	bx	lr
 5c2:	46c0      	nop			; (mov r8, r8)
	...
 5cc:	ffffdfff 			; <UNDEFINED> instruction: 0xffffdfff

000005d0 <hrt_SetOBJColor256>:
 5d0:	4b05      	ldr	r3, [pc, #20]	; (5e8 <hrt_SetOBJColor256+0x18>)
 5d2:	781b      	ldrb	r3, [r3, #0]
 5d4:	2b01      	cmp	r3, #1
 5d6:	d106      	bne.n	5e6 <hrt_SetOBJColor256+0x16>
 5d8:	2380      	movs	r3, #128	; 0x80
 5da:	4a04      	ldr	r2, [pc, #16]	; (5ec <hrt_SetOBJColor256+0x1c>)
 5dc:	00c0      	lsls	r0, r0, #3
 5de:	5a81      	ldrh	r1, [r0, r2]
 5e0:	019b      	lsls	r3, r3, #6
 5e2:	430b      	orrs	r3, r1
 5e4:	5283      	strh	r3, [r0, r2]
 5e6:	4770      	bx	lr
	...

000005f0 <hrt_SetOBJShape>:
 5f0:	4b05      	ldr	r3, [pc, #20]	; (608 <hrt_SetOBJShape+0x18>)
 5f2:	781b      	ldrb	r3, [r3, #0]
 5f4:	2b01      	cmp	r3, #1
 5f6:	d105      	bne.n	604 <hrt_SetOBJShape+0x14>
 5f8:	4a04      	ldr	r2, [pc, #16]	; (60c <hrt_SetOBJShape+0x1c>)
 5fa:	00c0      	lsls	r0, r0, #3
 5fc:	5a83      	ldrh	r3, [r0, r2]
 5fe:	0389      	lsls	r1, r1, #14
 600:	4319      	orrs	r1, r3
 602:	5281      	strh	r1, [r0, r2]
 604:	4770      	bx	lr
 606:	46c0      	nop			; (mov r8, r8)
	...

00000610 <hrt_SetOBJSize>:
 610:	4b05      	ldr	r3, [pc, #20]	; (628 <hrt_SetOBJSize+0x18>)
 612:	781b      	ldrb	r3, [r3, #0]
 614:	2b01      	cmp	r3, #1
 616:	d106      	bne.n	626 <hrt_SetOBJSize+0x16>
 618:	4b04      	ldr	r3, [pc, #16]	; (62c <hrt_SetOBJSize+0x1c>)
 61a:	00c0      	lsls	r0, r0, #3
 61c:	1818      	adds	r0, r3, r0
 61e:	8843      	ldrh	r3, [r0, #2]
 620:	0389      	lsls	r1, r1, #14
 622:	4319      	orrs	r1, r3
 624:	8041      	strh	r1, [r0, #2]
 626:	4770      	bx	lr
	...

00000630 <hrt_SetOBJOffset>:
 630:	4b05      	ldr	r3, [pc, #20]	; (648 <hrt_SetOBJOffset+0x18>)
 632:	781b      	ldrb	r3, [r3, #0]
 634:	2b01      	cmp	r3, #1
 636:	d105      	bne.n	644 <hrt_SetOBJOffset+0x14>
 638:	4b04      	ldr	r3, [pc, #16]	; (64c <hrt_SetOBJOffset+0x1c>)
 63a:	00c0      	lsls	r0, r0, #3
 63c:	1818      	adds	r0, r3, r0
 63e:	8883      	ldrh	r3, [r0, #4]
 640:	430b      	orrs	r3, r1
 642:	8083      	strh	r3, [r0, #4]
 644:	4770      	bx	lr
 646:	46c0      	nop			; (mov r8, r8)
	...

00000650 <hrt_SetOBJPriority>:
 650:	4b05      	ldr	r3, [pc, #20]	; (668 <hrt_SetOBJPriority+0x18>)
 652:	781b      	ldrb	r3, [r3, #0]
 654:	2b01      	cmp	r3, #1
 656:	d106      	bne.n	666 <hrt_SetOBJPriority+0x16>
 658:	4b04      	ldr	r3, [pc, #16]	; (66c <hrt_SetOBJPriority+0x1c>)
 65a:	00c0      	lsls	r0, r0, #3
 65c:	1818      	adds	r0, r3, r0
 65e:	8883      	ldrh	r3, [r0, #4]
 660:	0289      	lsls	r1, r1, #10
 662:	4319      	orrs	r1, r3
 664:	8081      	strh	r1, [r0, #4]
 666:	4770      	bx	lr
	...

00000670 <hrt_SetOBJPalette>:
 670:	4b05      	ldr	r3, [pc, #20]	; (688 <hrt_SetOBJPalette+0x18>)
 672:	781b      	ldrb	r3, [r3, #0]
 674:	2b01      	cmp	r3, #1
 676:	d106      	bne.n	686 <hrt_SetOBJPalette+0x16>
 678:	4b04      	ldr	r3, [pc, #16]	; (68c <hrt_SetOBJPalette+0x1c>)
 67a:	00c0      	lsls	r0, r0, #3
 67c:	1818      	adds	r0, r3, r0
 67e:	8883      	ldrh	r3, [r0, #4]
 680:	0309      	lsls	r1, r1, #12
 682:	4319      	orrs	r1, r3
 684:	8081      	strh	r1, [r0, #4]
 686:	4770      	bx	lr
	...

00000690 <hrt_DestroyOBJ>:
 690:	4b05      	ldr	r3, [pc, #20]	; (6a8 <hrt_DestroyOBJ+0x18>)
 692:	781b      	ldrb	r3, [r3, #0]
 694:	2b01      	cmp	r3, #1
 696:	d106      	bne.n	6a6 <hrt_DestroyOBJ+0x16>
 698:	2200      	movs	r2, #0
 69a:	4b04      	ldr	r3, [pc, #16]	; (6ac <hrt_DestroyOBJ+0x1c>)
 69c:	00c0      	lsls	r0, r0, #3
 69e:	52c2      	strh	r2, [r0, r3]
 6a0:	1818      	adds	r0, r3, r0
 6a2:	8042      	strh	r2, [r0, #2]
 6a4:	8082      	strh	r2, [r0, #4]
 6a6:	4770      	bx	lr
	...

000006b0 <hrt_GetOBJPalette>:
 6b0:	4b06      	ldr	r3, [pc, #24]	; (6cc <hrt_GetOBJPalette+0x1c>)
 6b2:	781b      	ldrb	r3, [r3, #0]
 6b4:	0002      	movs	r2, r0
 6b6:	2000      	movs	r0, #0
 6b8:	2b01      	cmp	r3, #1
 6ba:	d000      	beq.n	6be <hrt_GetOBJPalette+0xe>
 6bc:	4770      	bx	lr
 6be:	4804      	ldr	r0, [pc, #16]	; (6d0 <hrt_GetOBJPalette+0x20>)
 6c0:	00d2      	lsls	r2, r2, #3
 6c2:	1882      	adds	r2, r0, r2
 6c4:	200c      	movs	r0, #12
 6c6:	8893      	ldrh	r3, [r2, #4]
 6c8:	4018      	ands	r0, r3
 6ca:	e7f7      	b.n	6bc <hrt_GetOBJPalette+0xc>
	...

000006d4 <hrt_GetOBJPriority>:
 6d4:	4b06      	ldr	r3, [pc, #24]	; (6f0 <hrt_GetOBJPriority+0x1c>)
 6d6:	781b      	ldrb	r3, [r3, #0]
 6d8:	0002      	movs	r2, r0
 6da:	2000      	movs	r0, #0
 6dc:	2b01      	cmp	r3, #1
 6de:	d000      	beq.n	6e2 <hrt_GetOBJPriority+0xe>
 6e0:	4770      	bx	lr
 6e2:	4804      	ldr	r0, [pc, #16]	; (6f4 <hrt_GetOBJPriority+0x20>)
 6e4:	00d2      	lsls	r2, r2, #3
 6e6:	1882      	adds	r2, r0, r2
 6e8:	200a      	movs	r0, #10
 6ea:	8893      	ldrh	r3, [r2, #4]
 6ec:	4018      	ands	r0, r3
 6ee:	e7f7      	b.n	6e0 <hrt_GetOBJPriority+0xc>
	...

000006f8 <hrt_GetOBJOffset>:
 6f8:	2000      	movs	r0, #0
 6fa:	4770      	bx	lr

000006fc <hrt_GetOBJSize>:
 6fc:	4b06      	ldr	r3, [pc, #24]	; (718 <hrt_GetOBJSize+0x1c>)
 6fe:	781b      	ldrb	r3, [r3, #0]
 700:	0002      	movs	r2, r0
 702:	2000      	movs	r0, #0
 704:	2b01      	cmp	r3, #1
 706:	d000      	beq.n	70a <hrt_GetOBJSize+0xe>
 708:	4770      	bx	lr
 70a:	4804      	ldr	r0, [pc, #16]	; (71c <hrt_GetOBJSize+0x20>)
 70c:	00d2      	lsls	r2, r2, #3
 70e:	1882      	adds	r2, r0, r2
 710:	200e      	movs	r0, #14
 712:	8853      	ldrh	r3, [r2, #2]
 714:	4018      	ands	r0, r3
 716:	e7f7      	b.n	708 <hrt_GetOBJSize+0xc>
	...

00000720 <hrt_EnableOBJAffine>:
 720:	4b05      	ldr	r3, [pc, #20]	; (738 <hrt_EnableOBJAffine+0x18>)
 722:	781b      	ldrb	r3, [r3, #0]
 724:	2b01      	cmp	r3, #1
 726:	d105      	bne.n	734 <hrt_EnableOBJAffine+0x14>
 728:	4a04      	ldr	r2, [pc, #16]	; (73c <hrt_EnableOBJAffine+0x1c>)
 72a:	00c0      	lsls	r0, r0, #3
 72c:	5a81      	ldrh	r1, [r0, r2]
 72e:	33ff      	adds	r3, #255	; 0xff
 730:	430b      	orrs	r3, r1
 732:	5283      	strh	r3, [r0, r2]
 734:	4770      	bx	lr
 736:	46c0      	nop			; (mov r8, r8)
	...

00000740 <hrt_DisableOBJAffine>:
 740:	4b05      	ldr	r3, [pc, #20]	; (758 <hrt_DisableOBJAffine+0x18>)
 742:	781b      	ldrb	r3, [r3, #0]
 744:	2b01      	cmp	r3, #1
 746:	d106      	bne.n	756 <hrt_DisableOBJAffine+0x16>
 748:	2180      	movs	r1, #128	; 0x80
 74a:	4a04      	ldr	r2, [pc, #16]	; (75c <hrt_DisableOBJAffine+0x1c>)
 74c:	00c0      	lsls	r0, r0, #3
 74e:	5a83      	ldrh	r3, [r0, r2]
 750:	0049      	lsls	r1, r1, #1
 752:	400b      	ands	r3, r1
 754:	5283      	strh	r3, [r0, r2]
 756:	4770      	bx	lr
	...

00000760 <hrt_IsOBJAffine>:
 760:	4b06      	ldr	r3, [pc, #24]	; (77c <hrt_IsOBJAffine+0x1c>)
 762:	781b      	ldrb	r3, [r3, #0]
 764:	0002      	movs	r2, r0
 766:	2000      	movs	r0, #0
 768:	2b01      	cmp	r3, #1
 76a:	d000      	beq.n	76e <hrt_IsOBJAffine+0xe>
 76c:	4770      	bx	lr
 76e:	4b04      	ldr	r3, [pc, #16]	; (780 <hrt_IsOBJAffine+0x20>)
 770:	00d2      	lsls	r2, r2, #3
 772:	5ad3      	ldrh	r3, [r2, r3]
 774:	3008      	adds	r0, #8
 776:	4018      	ands	r0, r3
 778:	e7f8      	b.n	76c <hrt_IsOBJAffine+0xc>
 77a:	46c0      	nop			; (mov r8, r8)
	...

00000784 <hrt_IsOBJDoubleSize>:
 784:	4b06      	ldr	r3, [pc, #24]	; (7a0 <hrt_IsOBJDoubleSize+0x1c>)
 786:	781b      	ldrb	r3, [r3, #0]
 788:	0002      	movs	r2, r0
 78a:	2000      	movs	r0, #0
 78c:	2b01      	cmp	r3, #1
 78e:	d000      	beq.n	792 <hrt_IsOBJDoubleSize+0xe>
 790:	4770      	bx	lr
 792:	4b04      	ldr	r3, [pc, #16]	; (7a4 <hrt_IsOBJDoubleSize+0x20>)
 794:	00d2      	lsls	r2, r2, #3
 796:	5ad3      	ldrh	r3, [r2, r3]
 798:	3009      	adds	r0, #9
 79a:	4018      	ands	r0, r3
 79c:	e7f8      	b.n	790 <hrt_IsOBJDoubleSize+0xc>
 79e:	46c0      	nop			; (mov r8, r8)
	...

000007a8 <hrt_IsOBJMosaic>:
 7a8:	4b06      	ldr	r3, [pc, #24]	; (7c4 <hrt_IsOBJMosaic+0x1c>)
 7aa:	781b      	ldrb	r3, [r3, #0]
 7ac:	0002      	movs	r2, r0
 7ae:	2000      	movs	r0, #0
 7b0:	2b01      	cmp	r3, #1
 7b2:	d000      	beq.n	7b6 <hrt_IsOBJMosaic+0xe>
 7b4:	4770      	bx	lr
 7b6:	4b04      	ldr	r3, [pc, #16]	; (7c8 <hrt_IsOBJMosaic+0x20>)
 7b8:	00d2      	lsls	r2, r2, #3
 7ba:	5ad3      	ldrh	r3, [r2, r3]
 7bc:	300c      	adds	r0, #12
 7be:	4018      	ands	r0, r3
 7c0:	e7f8      	b.n	7b4 <hrt_IsOBJMosaic+0xc>
 7c2:	46c0      	nop			; (mov r8, r8)
	...

000007cc <hrt_GetOBJColorMode>:
 7cc:	4b06      	ldr	r3, [pc, #24]	; (7e8 <hrt_GetOBJColorMode+0x1c>)
 7ce:	781b      	ldrb	r3, [r3, #0]
 7d0:	0002      	movs	r2, r0
 7d2:	2000      	movs	r0, #0
 7d4:	2b01      	cmp	r3, #1
 7d6:	d000      	beq.n	7da <hrt_GetOBJColorMode+0xe>
 7d8:	4770      	bx	lr
 7da:	4b04      	ldr	r3, [pc, #16]	; (7ec <hrt_GetOBJColorMode+0x20>)
 7dc:	00d2      	lsls	r2, r2, #3
 7de:	5ad3      	ldrh	r3, [r2, r3]
 7e0:	300c      	adds	r0, #12
 7e2:	4018      	ands	r0, r3
 7e4:	e7f8      	b.n	7d8 <hrt_GetOBJColorMode+0xc>
 7e6:	46c0      	nop			; (mov r8, r8)
	...

000007f0 <hrt_IsOBJHFlip>:
 7f0:	4b06      	ldr	r3, [pc, #24]	; (80c <hrt_IsOBJHFlip+0x1c>)
 7f2:	781b      	ldrb	r3, [r3, #0]
 7f4:	0002      	movs	r2, r0
 7f6:	2000      	movs	r0, #0
 7f8:	2b01      	cmp	r3, #1
 7fa:	d000      	beq.n	7fe <hrt_IsOBJHFlip+0xe>
 7fc:	4770      	bx	lr
 7fe:	4804      	ldr	r0, [pc, #16]	; (810 <hrt_IsOBJHFlip+0x20>)
 800:	00d2      	lsls	r2, r2, #3
 802:	1882      	adds	r2, r0, r2
 804:	200c      	movs	r0, #12
 806:	8853      	ldrh	r3, [r2, #2]
 808:	4018      	ands	r0, r3
 80a:	e7f7      	b.n	7fc <hrt_IsOBJHFlip+0xc>
	...

00000814 <hrt_IsOBJVFlip>:
 814:	4b06      	ldr	r3, [pc, #24]	; (830 <hrt_IsOBJVFlip+0x1c>)
 816:	781b      	ldrb	r3, [r3, #0]
 818:	0002      	movs	r2, r0
 81a:	2000      	movs	r0, #0
 81c:	2b01      	cmp	r3, #1
 81e:	d000      	beq.n	822 <hrt_IsOBJVFlip+0xe>
 820:	4770      	bx	lr
 822:	4804      	ldr	r0, [pc, #16]	; (834 <hrt_IsOBJVFlip+0x20>)
 824:	00d2      	lsls	r2, r2, #3
 826:	1882      	adds	r2, r0, r2
 828:	200d      	movs	r0, #13
 82a:	8853      	ldrh	r3, [r2, #2]
 82c:	4018      	ands	r0, r3
 82e:	e7f7      	b.n	820 <hrt_IsOBJVFlip+0xc>
	...

00000838 <hrt_GetOBJShape>:
 838:	4b06      	ldr	r3, [pc, #24]	; (854 <hrt_GetOBJShape+0x1c>)
 83a:	781b      	ldrb	r3, [r3, #0]
 83c:	0002      	movs	r2, r0
 83e:	2000      	movs	r0, #0
 840:	2b01      	cmp	r3, #1
 842:	d000      	beq.n	846 <hrt_GetOBJShape+0xe>
 844:	4770      	bx	lr
 846:	4b04      	ldr	r3, [pc, #16]	; (858 <hrt_GetOBJShape+0x20>)
 848:	00d2      	lsls	r2, r2, #3
 84a:	5ad3      	ldrh	r3, [r2, r3]
 84c:	300e      	adds	r0, #14
 84e:	4018      	ands	r0, r3
 850:	e7f8      	b.n	844 <hrt_GetOBJShape+0xc>
 852:	46c0      	nop			; (mov r8, r8)
	...

0000085c <hrt_GetOBJMode>:
 85c:	4b06      	ldr	r3, [pc, #24]	; (878 <hrt_GetOBJMode+0x1c>)
 85e:	781b      	ldrb	r3, [r3, #0]
 860:	0002      	movs	r2, r0
 862:	2000      	movs	r0, #0
 864:	2b01      	cmp	r3, #1
 866:	d000      	beq.n	86a <hrt_GetOBJMode+0xe>
 868:	4770      	bx	lr
 86a:	4b04      	ldr	r3, [pc, #16]	; (87c <hrt_GetOBJMode+0x20>)
 86c:	00d2      	lsls	r2, r2, #3
 86e:	5ad3      	ldrh	r3, [r2, r3]
 870:	300a      	adds	r0, #10
 872:	4018      	ands	r0, r3
 874:	e7f8      	b.n	868 <hrt_GetOBJMode+0xc>
 876:	46c0      	nop			; (mov r8, r8)
	...
 880:	4718      	bx	r3
 882:	46c0      	nop			; (mov r8, r8)

Disassembly of section .text:

00000000 <hrt_ConfigSOUNDCNT>:
   0:	b5f0      	push	{r4, r5, r6, r7, lr}
   2:	464e      	mov	r6, r9
   4:	4645      	mov	r5, r8
   6:	46de      	mov	lr, fp
   8:	4657      	mov	r7, sl
   a:	b5e0      	push	{r5, r6, r7, lr}
   c:	ac09      	add	r4, sp, #36	; 0x24
   e:	7826      	ldrb	r6, [r4, #0]
  10:	ac0a      	add	r4, sp, #40	; 0x28
  12:	7827      	ldrb	r7, [r4, #0]
  14:	ac0b      	add	r4, sp, #44	; 0x2c
  16:	7824      	ldrb	r4, [r4, #0]
  18:	46a4      	mov	ip, r4
  1a:	ac0c      	add	r4, sp, #48	; 0x30
  1c:	7824      	ldrb	r4, [r4, #0]
  1e:	46a0      	mov	r8, r4
  20:	ac0d      	add	r4, sp, #52	; 0x34
  22:	7824      	ldrb	r4, [r4, #0]
  24:	469b      	mov	fp, r3
  26:	4b17      	ldr	r3, [pc, #92]	; (84 <hrt_ConfigSOUNDCNT+0x84>)
  28:	46a1      	mov	r9, r4
  2a:	781b      	ldrb	r3, [r3, #0]
  2c:	ac0e      	add	r4, sp, #56	; 0x38
  2e:	7825      	ldrb	r5, [r4, #0]
  30:	ac0f      	add	r4, sp, #60	; 0x3c
  32:	7824      	ldrb	r4, [r4, #0]
  34:	2b01      	cmp	r3, #1
  36:	d11c      	bne.n	72 <hrt_ConfigSOUNDCNT+0x72>
  38:	03ab      	lsls	r3, r5, #14
  3a:	03e5      	lsls	r5, r4, #15
  3c:	431d      	orrs	r5, r3
  3e:	464b      	mov	r3, r9
  40:	035c      	lsls	r4, r3, #13
  42:	4643      	mov	r3, r8
  44:	4325      	orrs	r5, r4
  46:	031c      	lsls	r4, r3, #12
  48:	4663      	mov	r3, ip
  4a:	432c      	orrs	r4, r5
  4c:	02dd      	lsls	r5, r3, #11
  4e:	465b      	mov	r3, fp
  50:	432c      	orrs	r4, r5
  52:	02bf      	lsls	r7, r7, #10
  54:	433c      	orrs	r4, r7
  56:	0276      	lsls	r6, r6, #9
  58:	021b      	lsls	r3, r3, #8
  5a:	4334      	orrs	r4, r6
  5c:	431c      	orrs	r4, r3
  5e:	00d2      	lsls	r2, r2, #3
  60:	4304      	orrs	r4, r0
  62:	4314      	orrs	r4, r2
  64:	2280      	movs	r2, #128	; 0x80
  66:	4b08      	ldr	r3, [pc, #32]	; (88 <hrt_ConfigSOUNDCNT+0x88>)
  68:	0089      	lsls	r1, r1, #2
  6a:	430c      	orrs	r4, r1
  6c:	801c      	strh	r4, [r3, #0]
  6e:	4b07      	ldr	r3, [pc, #28]	; (8c <hrt_ConfigSOUNDCNT+0x8c>)
  70:	801a      	strh	r2, [r3, #0]
  72:	bc3c      	pop	{r2, r3, r4, r5}
  74:	4690      	mov	r8, r2
  76:	4699      	mov	r9, r3
  78:	46a2      	mov	sl, r4
  7a:	46ab      	mov	fp, r5
  7c:	bcf0      	pop	{r4, r5, r6, r7}
  7e:	bc01      	pop	{r0}
  80:	4700      	bx	r0
  82:	46c0      	nop			; (mov r8, r8)
  84:	00000000 	andeq	r0, r0, r0
  88:	04000082 	streq	r0, [r0], #-130	; 0xffffff7e
  8c:	04000084 	streq	r0, [r0], #-132	; 0xffffff7c

00000090 <hrt_SoundDriverMain>:
  90:	4b02      	ldr	r3, [pc, #8]	; (9c <hrt_SoundDriverMain+0xc>)
  92:	781b      	ldrb	r3, [r3, #0]
  94:	2b01      	cmp	r3, #1
  96:	d100      	bne.n	9a <hrt_SoundDriverMain+0xa>
  98:	df1c      	svc	28
  9a:	4770      	bx	lr
  9c:	00000000 	andeq	r0, r0, r0

000000a0 <hrt_SoundDriverVsync>:
  a0:	4b02      	ldr	r3, [pc, #8]	; (ac <hrt_SoundDriverVsync+0xc>)
  a2:	781b      	ldrb	r3, [r3, #0]
  a4:	2b01      	cmp	r3, #1
  a6:	d100      	bne.n	aa <hrt_SoundDriverVsync+0xa>
  a8:	df1d      	svc	29
  aa:	4770      	bx	lr
  ac:	00000000 	andeq	r0, r0, r0

000000b0 <hrt_SoundChannelClear>:
  b0:	4b02      	ldr	r3, [pc, #8]	; (bc <hrt_SoundChannelClear+0xc>)
  b2:	781b      	ldrb	r3, [r3, #0]
  b4:	2b01      	cmp	r3, #1
  b6:	d100      	bne.n	ba <hrt_SoundChannelClear+0xa>
  b8:	df1e      	svc	30
  ba:	4770      	bx	lr
  bc:	00000000 	andeq	r0, r0, r0

000000c0 <hrt_SoundDriverVsyncOff>:
  c0:	4b02      	ldr	r3, [pc, #8]	; (cc <hrt_SoundDriverVsyncOff+0xc>)
  c2:	781b      	ldrb	r3, [r3, #0]
  c4:	2b01      	cmp	r3, #1
  c6:	d100      	bne.n	ca <hrt_SoundDriverVsyncOff+0xa>
  c8:	df28      	svc	40	; 0x28
  ca:	4770      	bx	lr
  cc:	00000000 	andeq	r0, r0, r0

000000d0 <hrt_SoundDriverVsyncOn>:
  d0:	4b02      	ldr	r3, [pc, #8]	; (dc <hrt_SoundDriverVsyncOn+0xc>)
  d2:	781b      	ldrb	r3, [r3, #0]
  d4:	2b01      	cmp	r3, #1
  d6:	d100      	bne.n	da <hrt_SoundDriverVsyncOn+0xa>
  d8:	df29      	svc	41	; 0x29
  da:	4770      	bx	lr
  dc:	00000000 	andeq	r0, r0, r0

000000e0 <hrt_SoundWhatever0>:
  e0:	4b02      	ldr	r3, [pc, #8]	; (ec <hrt_SoundWhatever0+0xc>)
  e2:	781b      	ldrb	r3, [r3, #0]
  e4:	2b01      	cmp	r3, #1
  e6:	d100      	bne.n	ea <hrt_SoundWhatever0+0xa>
  e8:	df20      	svc	32
  ea:	4770      	bx	lr
  ec:	00000000 	andeq	r0, r0, r0

000000f0 <hrt_SoundWhatever1>:
  f0:	4b02      	ldr	r3, [pc, #8]	; (fc <hrt_SoundWhatever1+0xc>)
  f2:	781b      	ldrb	r3, [r3, #0]
  f4:	2b01      	cmp	r3, #1
  f6:	d100      	bne.n	fa <hrt_SoundWhatever1+0xa>
  f8:	df21      	svc	33	; 0x21
  fa:	4770      	bx	lr
  fc:	00000000 	andeq	r0, r0, r0

00000100 <hrt_SoundWhatever2>:
 100:	4b02      	ldr	r3, [pc, #8]	; (10c <hrt_SoundWhatever2+0xc>)
 102:	781b      	ldrb	r3, [r3, #0]
 104:	2b01      	cmp	r3, #1
 106:	d100      	bne.n	10a <hrt_SoundWhatever2+0xa>
 108:	df22      	svc	34	; 0x22
 10a:	4770      	bx	lr
 10c:	00000000 	andeq	r0, r0, r0

00000110 <hrt_SoundWhatever3>:
 110:	4b02      	ldr	r3, [pc, #8]	; (11c <hrt_SoundWhatever3+0xc>)
 112:	781b      	ldrb	r3, [r3, #0]
 114:	2b01      	cmp	r3, #1
 116:	d100      	bne.n	11a <hrt_SoundWhatever3+0xa>
 118:	df23      	svc	35	; 0x23
 11a:	4770      	bx	lr
 11c:	00000000 	andeq	r0, r0, r0

00000120 <hrt_SoundWhatever4>:
 120:	4b02      	ldr	r3, [pc, #8]	; (12c <hrt_SoundWhatever4+0xc>)
 122:	781b      	ldrb	r3, [r3, #0]
 124:	2b01      	cmp	r3, #1
 126:	d100      	bne.n	12a <hrt_SoundWhatever4+0xa>
 128:	df24      	svc	36	; 0x24
 12a:	4770      	bx	lr
 12c:	00000000 	andeq	r0, r0, r0

Disassembly of section .text:

00000000 <hrt_SetSaveMode>:
   0:	4b03      	ldr	r3, [pc, #12]	; (10 <hrt_SetSaveMode+0x10>)
   2:	781a      	ldrb	r2, [r3, #0]
   4:	2a01      	cmp	r2, #1
   6:	d101      	bne.n	c <hrt_SetSaveMode+0xc>
   8:	3220      	adds	r2, #32
   a:	5498      	strb	r0, [r3, r2]
   c:	4770      	bx	lr
   e:	46c0      	nop			; (mov r8, r8)
  10:	00000000 	andeq	r0, r0, r0

00000014 <hrt_SaveByte>:
  14:	4b08      	ldr	r3, [pc, #32]	; (38 <hrt_SaveByte+0x24>)
  16:	781a      	ldrb	r2, [r3, #0]
  18:	2a01      	cmp	r2, #1
  1a:	d000      	beq.n	1e <hrt_SaveByte+0xa>
  1c:	4770      	bx	lr
  1e:	3220      	adds	r2, #32
  20:	5c9b      	ldrb	r3, [r3, r2]
  22:	2b00      	cmp	r3, #0
  24:	d103      	bne.n	2e <hrt_SaveByte+0x1a>
  26:	4b05      	ldr	r3, [pc, #20]	; (3c <hrt_SaveByte+0x28>)
  28:	681b      	ldr	r3, [r3, #0]
  2a:	5419      	strb	r1, [r3, r0]
  2c:	e7f6      	b.n	1c <hrt_SaveByte+0x8>
  2e:	4b04      	ldr	r3, [pc, #16]	; (40 <hrt_SaveByte+0x2c>)
  30:	681b      	ldr	r3, [r3, #0]
  32:	5419      	strb	r1, [r3, r0]
  34:	e7f2      	b.n	1c <hrt_SaveByte+0x8>
  36:	46c0      	nop			; (mov r8, r8)
	...

00000044 <hrt_LoadByte>:
  44:	4a09      	ldr	r2, [pc, #36]	; (6c <hrt_LoadByte+0x28>)
  46:	7811      	ldrb	r1, [r2, #0]
  48:	2300      	movs	r3, #0
  4a:	2901      	cmp	r1, #1
  4c:	d001      	beq.n	52 <hrt_LoadByte+0xe>
  4e:	0018      	movs	r0, r3
  50:	4770      	bx	lr
  52:	3321      	adds	r3, #33	; 0x21
  54:	5cd3      	ldrb	r3, [r2, r3]
  56:	2b00      	cmp	r3, #0
  58:	d103      	bne.n	62 <hrt_LoadByte+0x1e>
  5a:	4b05      	ldr	r3, [pc, #20]	; (70 <hrt_LoadByte+0x2c>)
  5c:	681b      	ldr	r3, [r3, #0]
  5e:	5c1b      	ldrb	r3, [r3, r0]
  60:	e7f5      	b.n	4e <hrt_LoadByte+0xa>
  62:	4b04      	ldr	r3, [pc, #16]	; (74 <hrt_LoadByte+0x30>)
  64:	681b      	ldr	r3, [r3, #0]
  66:	5c1b      	ldrb	r3, [r3, r0]
  68:	e7f1      	b.n	4e <hrt_LoadByte+0xa>
  6a:	46c0      	nop			; (mov r8, r8)
	...

Disassembly of section .text:

00000000 <hrt_Diff8bitUnFilterWram>:
   0:	4b06      	ldr	r3, [pc, #24]	; (1c <hrt_Diff8bitUnFilterWram+0x1c>)
   2:	781b      	ldrb	r3, [r3, #0]
   4:	b510      	push	{r4, lr}
   6:	0002      	movs	r2, r0
   8:	000c      	movs	r4, r1
   a:	2b01      	cmp	r3, #1
   c:	d102      	bne.n	14 <hrt_Diff8bitUnFilterWram+0x14>
   e:	1c10      	adds	r0, r2, #0
  10:	1c21      	adds	r1, r4, #0
  12:	df16      	svc	22
  14:	bc10      	pop	{r4}
  16:	bc01      	pop	{r0}
  18:	4700      	bx	r0
  1a:	46c0      	nop			; (mov r8, r8)
  1c:	00000000 	andeq	r0, r0, r0

00000020 <hrt_Diff8bitUnFilterVram>:
  20:	4b06      	ldr	r3, [pc, #24]	; (3c <hrt_Diff8bitUnFilterVram+0x1c>)
  22:	781b      	ldrb	r3, [r3, #0]
  24:	b510      	push	{r4, lr}
  26:	0002      	movs	r2, r0
  28:	000c      	movs	r4, r1
  2a:	2b01      	cmp	r3, #1
  2c:	d102      	bne.n	34 <hrt_Diff8bitUnFilterVram+0x14>
  2e:	1c10      	adds	r0, r2, #0
  30:	1c21      	adds	r1, r4, #0
  32:	df17      	svc	23
  34:	bc10      	pop	{r4}
  36:	bc01      	pop	{r0}
  38:	4700      	bx	r0
  3a:	46c0      	nop			; (mov r8, r8)
  3c:	00000000 	andeq	r0, r0, r0

00000040 <hrt_Diff16bitUnFilter>:
  40:	4b06      	ldr	r3, [pc, #24]	; (5c <hrt_Diff16bitUnFilter+0x1c>)
  42:	781b      	ldrb	r3, [r3, #0]
  44:	b510      	push	{r4, lr}
  46:	0002      	movs	r2, r0
  48:	000c      	movs	r4, r1
  4a:	2b01      	cmp	r3, #1
  4c:	d102      	bne.n	54 <hrt_Diff16bitUnFilter+0x14>
  4e:	1c10      	adds	r0, r2, #0
  50:	1c21      	adds	r1, r4, #0
  52:	df18      	svc	24
  54:	bc10      	pop	{r4}
  56:	bc01      	pop	{r0}
  58:	4700      	bx	r0
  5a:	46c0      	nop			; (mov r8, r8)
  5c:	00000000 	andeq	r0, r0, r0

00000060 <hrt_HuffUnComp>:
  60:	4b06      	ldr	r3, [pc, #24]	; (7c <hrt_HuffUnComp+0x1c>)
  62:	781b      	ldrb	r3, [r3, #0]
  64:	b510      	push	{r4, lr}
  66:	0002      	movs	r2, r0
  68:	000c      	movs	r4, r1
  6a:	2b01      	cmp	r3, #1
  6c:	d102      	bne.n	74 <hrt_HuffUnComp+0x14>
  6e:	1c10      	adds	r0, r2, #0
  70:	1c21      	adds	r1, r4, #0
  72:	df13      	svc	19
  74:	bc10      	pop	{r4}
  76:	bc01      	pop	{r0}
  78:	4700      	bx	r0
  7a:	46c0      	nop			; (mov r8, r8)
  7c:	00000000 	andeq	r0, r0, r0

00000080 <hrt_LZ77UnCompWRAM>:
  80:	4b06      	ldr	r3, [pc, #24]	; (9c <hrt_LZ77UnCompWRAM+0x1c>)
  82:	781b      	ldrb	r3, [r3, #0]
  84:	b510      	push	{r4, lr}
  86:	0002      	movs	r2, r0
  88:	000c      	movs	r4, r1
  8a:	2b01      	cmp	r3, #1
  8c:	d102      	bne.n	94 <hrt_LZ77UnCompWRAM+0x14>
  8e:	1c10      	adds	r0, r2, #0
  90:	1c21      	adds	r1, r4, #0
  92:	df11      	svc	17
  94:	bc10      	pop	{r4}
  96:	bc01      	pop	{r0}
  98:	4700      	bx	r0
  9a:	46c0      	nop			; (mov r8, r8)
  9c:	00000000 	andeq	r0, r0, r0

000000a0 <hrt_LZ77UnCompVRAM>:
  a0:	4b02      	ldr	r3, [pc, #8]	; (ac <hrt_LZ77UnCompVRAM+0xc>)
  a2:	781b      	ldrb	r3, [r3, #0]
  a4:	2b01      	cmp	r3, #1
  a6:	d100      	bne.n	aa <hrt_LZ77UnCompVRAM+0xa>
  a8:	df12      	svc	18
  aa:	4770      	bx	lr
  ac:	00000000 	andeq	r0, r0, r0

000000b0 <hrt_RLUnCompVram>:
  b0:	4b06      	ldr	r3, [pc, #24]	; (cc <hrt_RLUnCompVram+0x1c>)
  b2:	781b      	ldrb	r3, [r3, #0]
  b4:	b510      	push	{r4, lr}
  b6:	0002      	movs	r2, r0
  b8:	000c      	movs	r4, r1
  ba:	2b01      	cmp	r3, #1
  bc:	d102      	bne.n	c4 <hrt_RLUnCompVram+0x14>
  be:	1c10      	adds	r0, r2, #0
  c0:	1c21      	adds	r1, r4, #0
  c2:	df15      	svc	21
  c4:	bc10      	pop	{r4}
  c6:	bc01      	pop	{r0}
  c8:	4700      	bx	r0
  ca:	46c0      	nop			; (mov r8, r8)
  cc:	00000000 	andeq	r0, r0, r0

000000d0 <hrt_AGBPrint>:
  d0:	4b06      	ldr	r3, [pc, #24]	; (ec <hrt_AGBPrint+0x1c>)
  d2:	781b      	ldrb	r3, [r3, #0]
  d4:	b510      	push	{r4, lr}
  d6:	0004      	movs	r4, r0
  d8:	2b01      	cmp	r3, #1
  da:	d103      	bne.n	e4 <hrt_AGBPrint+0x14>
  dc:	1c22      	adds	r2, r4, #0
  de:	484c      	ldr	r0, [pc, #304]	; (210 <hrt_GetBiosChecksum+0x14>)
  e0:	2100      	movs	r1, #0
  e2:	4000      	ands	r0, r0
  e4:	bc10      	pop	{r4}
  e6:	bc01      	pop	{r0}
  e8:	4700      	bx	r0
  ea:	46c0      	nop			; (mov r8, r8)
  ec:	00000000 	andeq	r0, r0, r0

000000f0 <hrt_ColdReset>:
  f0:	4b02      	ldr	r3, [pc, #8]	; (fc <hrt_ColdReset+0xc>)
  f2:	781b      	ldrb	r3, [r3, #0]
  f4:	2b01      	cmp	r3, #1
  f6:	d100      	bne.n	fa <hrt_ColdReset+0xa>
  f8:	df26      	svc	38	; 0x26
  fa:	4770      	bx	lr
  fc:	00000000 	andeq	r0, r0, r0

00000100 <hrt_VblankIntrWait>:
 100:	4b02      	ldr	r3, [pc, #8]	; (10c <hrt_VblankIntrWait+0xc>)
 102:	781b      	ldrb	r3, [r3, #0]
 104:	2b01      	cmp	r3, #1
 106:	d100      	bne.n	10a <hrt_VblankIntrWait+0xa>
 108:	df05      	svc	5
 10a:	4770      	bx	lr
 10c:	00000000 	andeq	r0, r0, r0

00000110 <hrt_CpuSet>:
 110:	4b02      	ldr	r3, [pc, #8]	; (11c <hrt_CpuSet+0xc>)
 112:	781b      	ldrb	r3, [r3, #0]
 114:	2b01      	cmp	r3, #1
 116:	d100      	bne.n	11a <hrt_CpuSet+0xa>
 118:	df0b      	svc	11
 11a:	4770      	bx	lr
 11c:	00000000 	andeq	r0, r0, r0

00000120 <hrt_CpuFastSet>:
 120:	4b02      	ldr	r3, [pc, #8]	; (12c <hrt_CpuFastSet+0xc>)
 122:	781b      	ldrb	r3, [r3, #0]
 124:	2b01      	cmp	r3, #1
 126:	d100      	bne.n	12a <hrt_CpuFastSet+0xa>
 128:	df0c      	svc	12
 12a:	4770      	bx	lr
 12c:	00000000 	andeq	r0, r0, r0

00000130 <hrt_IntrWait>:
 130:	4b02      	ldr	r3, [pc, #8]	; (13c <hrt_IntrWait+0xc>)
 132:	781b      	ldrb	r3, [r3, #0]
 134:	2b01      	cmp	r3, #1
 136:	d100      	bne.n	13a <hrt_IntrWait+0xa>
 138:	df04      	svc	4
 13a:	4770      	bx	lr
 13c:	00000000 	andeq	r0, r0, r0

00000140 <hrt_Halt>:
 140:	4b02      	ldr	r3, [pc, #8]	; (14c <hrt_Halt+0xc>)
 142:	781b      	ldrb	r3, [r3, #0]
 144:	2b01      	cmp	r3, #1
 146:	d100      	bne.n	14a <hrt_Halt+0xa>
 148:	df02      	svc	2
 14a:	4770      	bx	lr
 14c:	00000000 	andeq	r0, r0, r0

00000150 <hrt_Stop>:
 150:	4b02      	ldr	r3, [pc, #8]	; (15c <hrt_Stop+0xc>)
 152:	781b      	ldrb	r3, [r3, #0]
 154:	2b01      	cmp	r3, #1
 156:	d100      	bne.n	15a <hrt_Stop+0xa>
 158:	df03      	svc	3
 15a:	4770      	bx	lr
 15c:	00000000 	andeq	r0, r0, r0

00000160 <hrt_ConfigRegisterRamReset>:
 160:	b5f0      	push	{r4, r5, r6, r7, lr}
 162:	46c6      	mov	lr, r8
 164:	b500      	push	{lr}
 166:	0006      	movs	r6, r0
 168:	a806      	add	r0, sp, #24
 16a:	7807      	ldrb	r7, [r0, #0]
 16c:	a807      	add	r0, sp, #28
 16e:	7800      	ldrb	r0, [r0, #0]
 170:	ad09      	add	r5, sp, #36	; 0x24
 172:	4684      	mov	ip, r0
 174:	a808      	add	r0, sp, #32
 176:	7804      	ldrb	r4, [r0, #0]
 178:	7828      	ldrb	r0, [r5, #0]
 17a:	4d0f      	ldr	r5, [pc, #60]	; (1b8 <hrt_ConfigRegisterRamReset+0x58>)
 17c:	782d      	ldrb	r5, [r5, #0]
 17e:	4680      	mov	r8, r0
 180:	2000      	movs	r0, #0
 182:	2d01      	cmp	r5, #1
 184:	d004      	beq.n	190 <hrt_ConfigRegisterRamReset+0x30>
 186:	bc04      	pop	{r2}
 188:	4690      	mov	r8, r2
 18a:	bcf0      	pop	{r4, r5, r6, r7}
 18c:	bc02      	pop	{r1}
 18e:	4708      	bx	r1
 190:	4640      	mov	r0, r8
 192:	01a4      	lsls	r4, r4, #6
 194:	01c0      	lsls	r0, r0, #7
 196:	4304      	orrs	r4, r0
 198:	4660      	mov	r0, ip
 19a:	0140      	lsls	r0, r0, #5
 19c:	4304      	orrs	r4, r0
 19e:	013f      	lsls	r7, r7, #4
 1a0:	433c      	orrs	r4, r7
 1a2:	00db      	lsls	r3, r3, #3
 1a4:	431c      	orrs	r4, r3
 1a6:	4334      	orrs	r4, r6
 1a8:	0092      	lsls	r2, r2, #2
 1aa:	4314      	orrs	r4, r2
 1ac:	0049      	lsls	r1, r1, #1
 1ae:	430c      	orrs	r4, r1
 1b0:	0624      	lsls	r4, r4, #24
 1b2:	0e20      	lsrs	r0, r4, #24
 1b4:	e7e7      	b.n	186 <hrt_ConfigRegisterRamReset+0x26>
 1b6:	46c0      	nop			; (mov r8, r8)
 1b8:	00000000 	andeq	r0, r0, r0

000001bc <hrt_SoftReset>:
 1bc:	4b02      	ldr	r3, [pc, #8]	; (1c8 <hrt_SoftReset+0xc>)
 1be:	781b      	ldrb	r3, [r3, #0]
 1c0:	2b01      	cmp	r3, #1
 1c2:	d100      	bne.n	1c6 <hrt_SoftReset+0xa>
 1c4:	df00      	svc	0
 1c6:	4770      	bx	lr
 1c8:	00000000 	andeq	r0, r0, r0

000001cc <hrt_BitUnPack>:
 1cc:	4b02      	ldr	r3, [pc, #8]	; (1d8 <hrt_BitUnPack+0xc>)
 1ce:	781b      	ldrb	r3, [r3, #0]
 1d0:	2b01      	cmp	r3, #1
 1d2:	d100      	bne.n	1d6 <hrt_BitUnPack+0xa>
 1d4:	df10      	svc	16
 1d6:	4770      	bx	lr
 1d8:	00000000 	andeq	r0, r0, r0

000001dc <hrt_ObjAffineSet>:
 1dc:	4b02      	ldr	r3, [pc, #8]	; (1e8 <hrt_ObjAffineSet+0xc>)
 1de:	781b      	ldrb	r3, [r3, #0]
 1e0:	2b01      	cmp	r3, #1
 1e2:	d100      	bne.n	1e6 <hrt_ObjAffineSet+0xa>
 1e4:	df0f      	svc	15
 1e6:	4770      	bx	lr
 1e8:	00000000 	andeq	r0, r0, r0

000001ec <hrt_BgAffineSet>:
 1ec:	4b02      	ldr	r3, [pc, #8]	; (1f8 <hrt_BgAffineSet+0xc>)
 1ee:	781b      	ldrb	r3, [r3, #0]
 1f0:	2b01      	cmp	r3, #1
 1f2:	d100      	bne.n	1f6 <hrt_BgAffineSet+0xa>
 1f4:	df0e      	svc	14
 1f6:	4770      	bx	lr
 1f8:	00000000 	andeq	r0, r0, r0

000001fc <hrt_GetBiosChecksum>:
 1fc:	4b03      	ldr	r3, [pc, #12]	; (20c <hrt_GetBiosChecksum+0x10>)
 1fe:	781b      	ldrb	r3, [r3, #0]
 200:	2000      	movs	r0, #0
 202:	2b01      	cmp	r3, #1
 204:	d101      	bne.n	20a <hrt_GetBiosChecksum+0xe>
 206:	df0d      	svc	13
 208:	1c00      	adds	r0, r0, #0
 20a:	4770      	bx	lr
 20c:	00000000 	andeq	r0, r0, r0
 210:	c0ded00d 	sbcsgt	sp, lr, sp

Disassembly of section .text:

00000000 <hrt_SetBitmapTextColors>:
   0:	4b03      	ldr	r3, [pc, #12]	; (10 <hrt_SetBitmapTextColors+0x10>)
   2:	781b      	ldrb	r3, [r3, #0]
   4:	2b01      	cmp	r3, #1
   6:	d102      	bne.n	e <hrt_SetBitmapTextColors+0xe>
   8:	4b02      	ldr	r3, [pc, #8]	; (14 <hrt_SetBitmapTextColors+0x14>)
   a:	8058      	strh	r0, [r3, #2]
   c:	8099      	strh	r1, [r3, #4]
   e:	4770      	bx	lr
	...

00000018 <hrt_DrawChar>:
  18:	b5f0      	push	{r4, r5, r6, r7, lr}
  1a:	4657      	mov	r7, sl
  1c:	46de      	mov	lr, fp
  1e:	464e      	mov	r6, r9
  20:	4645      	mov	r5, r8
  22:	b5e0      	push	{r5, r6, r7, lr}
  24:	000f      	movs	r7, r1
  26:	494a      	ldr	r1, [pc, #296]	; (150 <hrt_DrawChar+0x138>)
  28:	7809      	ldrb	r1, [r1, #0]
  2a:	b083      	sub	sp, #12
  2c:	2901      	cmp	r1, #1
  2e:	d008      	beq.n	42 <hrt_DrawChar+0x2a>
  30:	b003      	add	sp, #12
  32:	bc3c      	pop	{r2, r3, r4, r5}
  34:	4690      	mov	r8, r2
  36:	4699      	mov	r9, r3
  38:	46a2      	mov	sl, r4
  3a:	46ab      	mov	fp, r5
  3c:	bcf0      	pop	{r4, r5, r6, r7}
  3e:	bc01      	pop	{r0}
  40:	4700      	bx	r0
  42:	3b20      	subs	r3, #32
  44:	019c      	lsls	r4, r3, #6
  46:	4b43      	ldr	r3, [pc, #268]	; (154 <hrt_DrawChar+0x13c>)
  48:	18e4      	adds	r4, r4, r3
  4a:	2308      	movs	r3, #8
  4c:	4698      	mov	r8, r3
  4e:	4b42      	ldr	r3, [pc, #264]	; (158 <hrt_DrawChar+0x140>)
  50:	469a      	mov	sl, r3
  52:	4b42      	ldr	r3, [pc, #264]	; (15c <hrt_DrawChar+0x144>)
  54:	0015      	movs	r5, r2
  56:	4490      	add	r8, r2
  58:	469b      	mov	fp, r3
  5a:	9001      	str	r0, [sp, #4]
  5c:	e018      	b.n	90 <hrt_DrawChar+0x78>
  5e:	7863      	ldrb	r3, [r4, #1]
  60:	2b00      	cmp	r3, #0
  62:	d123      	bne.n	ac <hrt_DrawChar+0x94>
  64:	78a3      	ldrb	r3, [r4, #2]
  66:	2b00      	cmp	r3, #0
  68:	d12c      	bne.n	c4 <hrt_DrawChar+0xac>
  6a:	78e3      	ldrb	r3, [r4, #3]
  6c:	2b00      	cmp	r3, #0
  6e:	d135      	bne.n	dc <hrt_DrawChar+0xc4>
  70:	7923      	ldrb	r3, [r4, #4]
  72:	2b00      	cmp	r3, #0
  74:	d13e      	bne.n	f4 <hrt_DrawChar+0xdc>
  76:	7963      	ldrb	r3, [r4, #5]
  78:	2b00      	cmp	r3, #0
  7a:	d147      	bne.n	10c <hrt_DrawChar+0xf4>
  7c:	79a3      	ldrb	r3, [r4, #6]
  7e:	2b00      	cmp	r3, #0
  80:	d150      	bne.n	124 <hrt_DrawChar+0x10c>
  82:	79e3      	ldrb	r3, [r4, #7]
  84:	2b00      	cmp	r3, #0
  86:	d159      	bne.n	13c <hrt_DrawChar+0x124>
  88:	3501      	adds	r5, #1
  8a:	3408      	adds	r4, #8
  8c:	4545      	cmp	r5, r8
  8e:	d0cf      	beq.n	30 <hrt_DrawChar+0x18>
  90:	7823      	ldrb	r3, [r4, #0]
  92:	2b00      	cmp	r3, #0
  94:	d0e3      	beq.n	5e <hrt_DrawChar+0x46>
  96:	4652      	mov	r2, sl
  98:	005b      	lsls	r3, r3, #1
  9a:	5a9b      	ldrh	r3, [r3, r2]
  9c:	0039      	movs	r1, r7
  9e:	002a      	movs	r2, r5
  a0:	9801      	ldr	r0, [sp, #4]
  a2:	f000 f9f4 	bl	48e <hrt_ClearTiledText+0x6e>
  a6:	7863      	ldrb	r3, [r4, #1]
  a8:	2b00      	cmp	r3, #0
  aa:	d0db      	beq.n	64 <hrt_DrawChar+0x4c>
  ac:	4a2a      	ldr	r2, [pc, #168]	; (158 <hrt_DrawChar+0x140>)
  ae:	005b      	lsls	r3, r3, #1
  b0:	5a9b      	ldrh	r3, [r3, r2]
  b2:	1c79      	adds	r1, r7, #1
  b4:	002a      	movs	r2, r5
  b6:	9801      	ldr	r0, [sp, #4]
  b8:	4e28      	ldr	r6, [pc, #160]	; (15c <hrt_DrawChar+0x144>)
  ba:	f000 f9e6 	bl	48a <hrt_ClearTiledText+0x6a>
  be:	78a3      	ldrb	r3, [r4, #2]
  c0:	2b00      	cmp	r3, #0
  c2:	d0d2      	beq.n	6a <hrt_DrawChar+0x52>
  c4:	4a24      	ldr	r2, [pc, #144]	; (158 <hrt_DrawChar+0x140>)
  c6:	005b      	lsls	r3, r3, #1
  c8:	5a9b      	ldrh	r3, [r3, r2]
  ca:	1cb9      	adds	r1, r7, #2
  cc:	002a      	movs	r2, r5
  ce:	9801      	ldr	r0, [sp, #4]
  d0:	4e22      	ldr	r6, [pc, #136]	; (15c <hrt_DrawChar+0x144>)
  d2:	f000 f9da 	bl	48a <hrt_ClearTiledText+0x6a>
  d6:	78e3      	ldrb	r3, [r4, #3]
  d8:	2b00      	cmp	r3, #0
  da:	d0c9      	beq.n	70 <hrt_DrawChar+0x58>
  dc:	4a1e      	ldr	r2, [pc, #120]	; (158 <hrt_DrawChar+0x140>)
  de:	005b      	lsls	r3, r3, #1
  e0:	5a9b      	ldrh	r3, [r3, r2]
  e2:	1cf9      	adds	r1, r7, #3
  e4:	002a      	movs	r2, r5
  e6:	9801      	ldr	r0, [sp, #4]
  e8:	4e1c      	ldr	r6, [pc, #112]	; (15c <hrt_DrawChar+0x144>)
  ea:	f000 f9ce 	bl	48a <hrt_ClearTiledText+0x6a>
  ee:	7923      	ldrb	r3, [r4, #4]
  f0:	2b00      	cmp	r3, #0
  f2:	d0c0      	beq.n	76 <hrt_DrawChar+0x5e>
  f4:	4a18      	ldr	r2, [pc, #96]	; (158 <hrt_DrawChar+0x140>)
  f6:	005b      	lsls	r3, r3, #1
  f8:	5a9b      	ldrh	r3, [r3, r2]
  fa:	1d39      	adds	r1, r7, #4
  fc:	002a      	movs	r2, r5
  fe:	9801      	ldr	r0, [sp, #4]
 100:	4e16      	ldr	r6, [pc, #88]	; (15c <hrt_DrawChar+0x144>)
 102:	f000 f9c2 	bl	48a <hrt_ClearTiledText+0x6a>
 106:	7963      	ldrb	r3, [r4, #5]
 108:	2b00      	cmp	r3, #0
 10a:	d0b7      	beq.n	7c <hrt_DrawChar+0x64>
 10c:	4a12      	ldr	r2, [pc, #72]	; (158 <hrt_DrawChar+0x140>)
 10e:	005b      	lsls	r3, r3, #1
 110:	5a9b      	ldrh	r3, [r3, r2]
 112:	1d79      	adds	r1, r7, #5
 114:	002a      	movs	r2, r5
 116:	9801      	ldr	r0, [sp, #4]
 118:	4e10      	ldr	r6, [pc, #64]	; (15c <hrt_DrawChar+0x144>)
 11a:	f000 f9b6 	bl	48a <hrt_ClearTiledText+0x6a>
 11e:	79a3      	ldrb	r3, [r4, #6]
 120:	2b00      	cmp	r3, #0
 122:	d0ae      	beq.n	82 <hrt_DrawChar+0x6a>
 124:	4a0c      	ldr	r2, [pc, #48]	; (158 <hrt_DrawChar+0x140>)
 126:	005b      	lsls	r3, r3, #1
 128:	5a9b      	ldrh	r3, [r3, r2]
 12a:	1db9      	adds	r1, r7, #6
 12c:	002a      	movs	r2, r5
 12e:	9801      	ldr	r0, [sp, #4]
 130:	4e0a      	ldr	r6, [pc, #40]	; (15c <hrt_DrawChar+0x144>)
 132:	f000 f9aa 	bl	48a <hrt_ClearTiledText+0x6a>
 136:	79e3      	ldrb	r3, [r4, #7]
 138:	2b00      	cmp	r3, #0
 13a:	d0a5      	beq.n	88 <hrt_DrawChar+0x70>
 13c:	4a06      	ldr	r2, [pc, #24]	; (158 <hrt_DrawChar+0x140>)
 13e:	005b      	lsls	r3, r3, #1
 140:	5a9b      	ldrh	r3, [r3, r2]
 142:	1df9      	adds	r1, r7, #7
 144:	002a      	movs	r2, r5
 146:	9801      	ldr	r0, [sp, #4]
 148:	4e04      	ldr	r6, [pc, #16]	; (15c <hrt_DrawChar+0x144>)
 14a:	f000 f99e 	bl	48a <hrt_ClearTiledText+0x6a>
 14e:	e79b      	b.n	ffffff3a <__hrt_system+0xffffff3a>
	...

00000160 <hrt_PrintOnBitmap>:
 160:	b40c      	push	{r2, r3}
 162:	b5f0      	push	{r4, r5, r6, r7, lr}
 164:	46de      	mov	lr, fp
 166:	464e      	mov	r6, r9
 168:	4645      	mov	r5, r8
 16a:	4657      	mov	r7, sl
 16c:	b5e0      	push	{r5, r6, r7, lr}
 16e:	4b5d      	ldr	r3, [pc, #372]	; (2e4 <hrt_PrintOnBitmap+0x184>)
 170:	4698      	mov	r8, r3
 172:	781b      	ldrb	r3, [r3, #0]
 174:	b085      	sub	sp, #20
 176:	0006      	movs	r6, r0
 178:	468b      	mov	fp, r1
 17a:	2b01      	cmp	r3, #1
 17c:	d009      	beq.n	192 <hrt_PrintOnBitmap+0x32>
 17e:	b005      	add	sp, #20
 180:	bc3c      	pop	{r2, r3, r4, r5}
 182:	4690      	mov	r8, r2
 184:	4699      	mov	r9, r3
 186:	46a2      	mov	sl, r4
 188:	46ab      	mov	fp, r5
 18a:	bcf0      	pop	{r4, r5, r6, r7}
 18c:	bc08      	pop	{r3}
 18e:	b002      	add	sp, #8
 190:	4718      	bx	r3
 192:	4f55      	ldr	r7, [pc, #340]	; (2e8 <hrt_PrintOnBitmap+0x188>)
 194:	aa0f      	add	r2, sp, #60	; 0x3c
 196:	9203      	str	r2, [sp, #12]
 198:	990e      	ldr	r1, [sp, #56]	; 0x38
 19a:	0038      	movs	r0, r7
 19c:	4b53      	ldr	r3, [pc, #332]	; (2ec <hrt_PrintOnBitmap+0x18c>)
 19e:	f000 f973 	bl	488 <hrt_ClearTiledText+0x68>
 1a2:	783c      	ldrb	r4, [r7, #0]
 1a4:	2c00      	cmp	r4, #0
 1a6:	d0ea      	beq.n	17e <hrt_PrintOnBitmap+0x1e>
 1a8:	465b      	mov	r3, fp
 1aa:	3607      	adds	r6, #7
 1ac:	9301      	str	r3, [sp, #4]
 1ae:	e003      	b.n	1b8 <hrt_PrintOnBitmap+0x58>
 1b0:	783c      	ldrb	r4, [r7, #0]
 1b2:	3608      	adds	r6, #8
 1b4:	2c00      	cmp	r4, #0
 1b6:	d0e2      	beq.n	17e <hrt_PrintOnBitmap+0x1e>
 1b8:	4643      	mov	r3, r8
 1ba:	781b      	ldrb	r3, [r3, #0]
 1bc:	3701      	adds	r7, #1
 1be:	2b01      	cmp	r3, #1
 1c0:	d1f6      	bne.n	1b0 <hrt_PrintOnBitmap+0x50>
 1c2:	1ff3      	subs	r3, r6, #7
 1c4:	469b      	mov	fp, r3
 1c6:	4b4a      	ldr	r3, [pc, #296]	; (2f0 <hrt_PrintOnBitmap+0x190>)
 1c8:	2208      	movs	r2, #8
 1ca:	469c      	mov	ip, r3
 1cc:	3c20      	subs	r4, #32
 1ce:	01a4      	lsls	r4, r4, #6
 1d0:	4464      	add	r4, ip
 1d2:	4694      	mov	ip, r2
 1d4:	9b01      	ldr	r3, [sp, #4]
 1d6:	001d      	movs	r5, r3
 1d8:	4463      	add	r3, ip
 1da:	46b9      	mov	r9, r7
 1dc:	9300      	str	r3, [sp, #0]
 1de:	e019      	b.n	214 <hrt_PrintOnBitmap+0xb4>
 1e0:	7863      	ldrb	r3, [r4, #1]
 1e2:	2b00      	cmp	r3, #0
 1e4:	d125      	bne.n	232 <hrt_PrintOnBitmap+0xd2>
 1e6:	78a3      	ldrb	r3, [r4, #2]
 1e8:	2b00      	cmp	r3, #0
 1ea:	d12e      	bne.n	24a <hrt_PrintOnBitmap+0xea>
 1ec:	78e3      	ldrb	r3, [r4, #3]
 1ee:	2b00      	cmp	r3, #0
 1f0:	d137      	bne.n	262 <hrt_PrintOnBitmap+0x102>
 1f2:	7923      	ldrb	r3, [r4, #4]
 1f4:	2b00      	cmp	r3, #0
 1f6:	d140      	bne.n	27a <hrt_PrintOnBitmap+0x11a>
 1f8:	7963      	ldrb	r3, [r4, #5]
 1fa:	2b00      	cmp	r3, #0
 1fc:	d149      	bne.n	292 <hrt_PrintOnBitmap+0x132>
 1fe:	79a3      	ldrb	r3, [r4, #6]
 200:	2b00      	cmp	r3, #0
 202:	d152      	bne.n	2aa <hrt_PrintOnBitmap+0x14a>
 204:	79e3      	ldrb	r3, [r4, #7]
 206:	2b00      	cmp	r3, #0
 208:	d15b      	bne.n	2c2 <hrt_PrintOnBitmap+0x162>
 20a:	9b00      	ldr	r3, [sp, #0]
 20c:	3501      	adds	r5, #1
 20e:	3408      	adds	r4, #8
 210:	42ab      	cmp	r3, r5
 212:	d064      	beq.n	2de <hrt_PrintOnBitmap+0x17e>
 214:	7823      	ldrb	r3, [r4, #0]
 216:	2b00      	cmp	r3, #0
 218:	d0e2      	beq.n	1e0 <hrt_PrintOnBitmap+0x80>
 21a:	4a36      	ldr	r2, [pc, #216]	; (2f4 <hrt_PrintOnBitmap+0x194>)
 21c:	005b      	lsls	r3, r3, #1
 21e:	5a9b      	ldrh	r3, [r3, r2]
 220:	4659      	mov	r1, fp
 222:	002a      	movs	r2, r5
 224:	2003      	movs	r0, #3
 226:	4f34      	ldr	r7, [pc, #208]	; (2f8 <hrt_PrintOnBitmap+0x198>)
 228:	f000 f930 	bl	48c <hrt_ClearTiledText+0x6c>
 22c:	7863      	ldrb	r3, [r4, #1]
 22e:	2b00      	cmp	r3, #0
 230:	d0d9      	beq.n	1e6 <hrt_PrintOnBitmap+0x86>
 232:	4a30      	ldr	r2, [pc, #192]	; (2f4 <hrt_PrintOnBitmap+0x194>)
 234:	005b      	lsls	r3, r3, #1
 236:	5a9b      	ldrh	r3, [r3, r2]
 238:	1fb1      	subs	r1, r6, #6
 23a:	002a      	movs	r2, r5
 23c:	2003      	movs	r0, #3
 23e:	4f2e      	ldr	r7, [pc, #184]	; (2f8 <hrt_PrintOnBitmap+0x198>)
 240:	f000 f924 	bl	48c <hrt_ClearTiledText+0x6c>
 244:	78a3      	ldrb	r3, [r4, #2]
 246:	2b00      	cmp	r3, #0
 248:	d0d0      	beq.n	1ec <hrt_PrintOnBitmap+0x8c>
 24a:	4a2a      	ldr	r2, [pc, #168]	; (2f4 <hrt_PrintOnBitmap+0x194>)
 24c:	005b      	lsls	r3, r3, #1
 24e:	5a9b      	ldrh	r3, [r3, r2]
 250:	1f71      	subs	r1, r6, #5
 252:	002a      	movs	r2, r5
 254:	2003      	movs	r0, #3
 256:	4f28      	ldr	r7, [pc, #160]	; (2f8 <hrt_PrintOnBitmap+0x198>)
 258:	f000 f918 	bl	48c <hrt_ClearTiledText+0x6c>
 25c:	78e3      	ldrb	r3, [r4, #3]
 25e:	2b00      	cmp	r3, #0
 260:	d0c7      	beq.n	1f2 <hrt_PrintOnBitmap+0x92>
 262:	4a24      	ldr	r2, [pc, #144]	; (2f4 <hrt_PrintOnBitmap+0x194>)
 264:	005b      	lsls	r3, r3, #1
 266:	5a9b      	ldrh	r3, [r3, r2]
 268:	1f31      	subs	r1, r6, #4
 26a:	002a      	movs	r2, r5
 26c:	2003      	movs	r0, #3
 26e:	4f22      	ldr	r7, [pc, #136]	; (2f8 <hrt_PrintOnBitmap+0x198>)
 270:	f000 f90c 	bl	48c <hrt_ClearTiledText+0x6c>
 274:	7923      	ldrb	r3, [r4, #4]
 276:	2b00      	cmp	r3, #0
 278:	d0be      	beq.n	1f8 <hrt_PrintOnBitmap+0x98>
 27a:	4a1e      	ldr	r2, [pc, #120]	; (2f4 <hrt_PrintOnBitmap+0x194>)
 27c:	005b      	lsls	r3, r3, #1
 27e:	5a9b      	ldrh	r3, [r3, r2]
 280:	1ef1      	subs	r1, r6, #3
 282:	002a      	movs	r2, r5
 284:	2003      	movs	r0, #3
 286:	4f1c      	ldr	r7, [pc, #112]	; (2f8 <hrt_PrintOnBitmap+0x198>)
 288:	f000 f900 	bl	48c <hrt_ClearTiledText+0x6c>
 28c:	7963      	ldrb	r3, [r4, #5]
 28e:	2b00      	cmp	r3, #0
 290:	d0b5      	beq.n	1fe <hrt_PrintOnBitmap+0x9e>
 292:	4a18      	ldr	r2, [pc, #96]	; (2f4 <hrt_PrintOnBitmap+0x194>)
 294:	005b      	lsls	r3, r3, #1
 296:	5a9b      	ldrh	r3, [r3, r2]
 298:	1eb1      	subs	r1, r6, #2
 29a:	002a      	movs	r2, r5
 29c:	2003      	movs	r0, #3
 29e:	4f16      	ldr	r7, [pc, #88]	; (2f8 <hrt_PrintOnBitmap+0x198>)
 2a0:	f000 f8f4 	bl	48c <hrt_ClearTiledText+0x6c>
 2a4:	79a3      	ldrb	r3, [r4, #6]
 2a6:	2b00      	cmp	r3, #0
 2a8:	d0ac      	beq.n	204 <hrt_PrintOnBitmap+0xa4>
 2aa:	4a12      	ldr	r2, [pc, #72]	; (2f4 <hrt_PrintOnBitmap+0x194>)
 2ac:	005b      	lsls	r3, r3, #1
 2ae:	5a9b      	ldrh	r3, [r3, r2]
 2b0:	1e71      	subs	r1, r6, #1
 2b2:	002a      	movs	r2, r5
 2b4:	2003      	movs	r0, #3
 2b6:	4f10      	ldr	r7, [pc, #64]	; (2f8 <hrt_PrintOnBitmap+0x198>)
 2b8:	f000 f8e8 	bl	48c <hrt_ClearTiledText+0x6c>
 2bc:	79e3      	ldrb	r3, [r4, #7]
 2be:	2b00      	cmp	r3, #0
 2c0:	d0a3      	beq.n	20a <hrt_PrintOnBitmap+0xaa>
 2c2:	4a0c      	ldr	r2, [pc, #48]	; (2f4 <hrt_PrintOnBitmap+0x194>)
 2c4:	005b      	lsls	r3, r3, #1
 2c6:	5a9b      	ldrh	r3, [r3, r2]
 2c8:	0031      	movs	r1, r6
 2ca:	002a      	movs	r2, r5
 2cc:	2003      	movs	r0, #3
 2ce:	4f0a      	ldr	r7, [pc, #40]	; (2f8 <hrt_PrintOnBitmap+0x198>)
 2d0:	f000 f8dc 	bl	48c <hrt_ClearTiledText+0x6c>
 2d4:	9b00      	ldr	r3, [sp, #0]
 2d6:	3501      	adds	r5, #1
 2d8:	3408      	adds	r4, #8
 2da:	42ab      	cmp	r3, r5
 2dc:	d19a      	bne.n	214 <hrt_PrintOnBitmap+0xb4>
 2de:	464f      	mov	r7, r9
 2e0:	e766      	b.n	1b0 <hrt_PrintOnBitmap+0x50>
 2e2:	46c0      	nop			; (mov r8, r8)
	...

000002fc <hrt_InitTiledText>:
 2fc:	b5f0      	push	{r4, r5, r6, r7, lr}
 2fe:	4b25      	ldr	r3, [pc, #148]	; (394 <hrt_InitTiledText+0x98>)
 300:	781c      	ldrb	r4, [r3, #0]
 302:	b083      	sub	sp, #12
 304:	0005      	movs	r5, r0
 306:	2c01      	cmp	r4, #1
 308:	d003      	beq.n	312 <hrt_InitTiledText+0x16>
 30a:	b003      	add	sp, #12
 30c:	bcf0      	pop	{r4, r5, r6, r7}
 30e:	bc01      	pop	{r0}
 310:	4700      	bx	r0
 312:	2700      	movs	r7, #0
 314:	4b20      	ldr	r3, [pc, #128]	; (398 <hrt_InitTiledText+0x9c>)
 316:	466a      	mov	r2, sp
 318:	9300      	str	r3, [sp, #0]
 31a:	4920      	ldr	r1, [pc, #128]	; (39c <hrt_InitTiledText+0xa0>)
 31c:	4b20      	ldr	r3, [pc, #128]	; (3a0 <hrt_InitTiledText+0xa4>)
 31e:	4821      	ldr	r0, [pc, #132]	; (3a4 <hrt_InitTiledText+0xa8>)
 320:	9701      	str	r7, [sp, #4]
 322:	f000 f8b1 	bl	488 <hrt_ClearTiledText+0x68>
 326:	4e20      	ldr	r6, [pc, #128]	; (3a8 <hrt_InitTiledText+0xac>)
 328:	2100      	movs	r1, #0
 32a:	2000      	movs	r0, #0
 32c:	f000 f8ad 	bl	48a <hrt_ClearTiledText+0x6a>
 330:	491e      	ldr	r1, [pc, #120]	; (3ac <hrt_InitTiledText+0xb0>)
 332:	2001      	movs	r0, #1
 334:	f000 f8a9 	bl	48a <hrt_ClearTiledText+0x6a>
 338:	491d      	ldr	r1, [pc, #116]	; (3b0 <hrt_InitTiledText+0xb4>)
 33a:	2002      	movs	r0, #2
 33c:	f000 f8a5 	bl	48a <hrt_ClearTiledText+0x6a>
 340:	4b1c      	ldr	r3, [pc, #112]	; (3b4 <hrt_InitTiledText+0xb8>)
 342:	469c      	mov	ip, r3
 344:	4b1c      	ldr	r3, [pc, #112]	; (3b8 <hrt_InitTiledText+0xbc>)
 346:	6819      	ldr	r1, [r3, #0]
 348:	4465      	add	r5, ip
 34a:	084a      	lsrs	r2, r1, #1
 34c:	006d      	lsls	r5, r5, #1
 34e:	4252      	negs	r2, r2
 350:	802f      	strh	r7, [r5, #0]
 352:	4014      	ands	r4, r2
 354:	d01c      	beq.n	390 <hrt_InitTiledText+0x94>
 356:	2340      	movs	r3, #64	; 0x40
 358:	800b      	strh	r3, [r1, #0]
 35a:	3b3f      	subs	r3, #63	; 0x3f
 35c:	2080      	movs	r0, #128	; 0x80
 35e:	00c0      	lsls	r0, r0, #3
 360:	1b00      	subs	r0, r0, r4
 362:	0400      	lsls	r0, r0, #16
 364:	0064      	lsls	r4, r4, #1
 366:	0c05      	lsrs	r5, r0, #16
 368:	0c40      	lsrs	r0, r0, #17
 36a:	190a      	adds	r2, r1, r4
 36c:	0080      	lsls	r0, r0, #2
 36e:	4c13      	ldr	r4, [pc, #76]	; (3bc <hrt_InitTiledText+0xc0>)
 370:	1880      	adds	r0, r0, r2
 372:	c210      	stmia	r2!, {r4}
 374:	4290      	cmp	r0, r2
 376:	d1fc      	bne.n	372 <hrt_InitTiledText+0x76>
 378:	2201      	movs	r2, #1
 37a:	0028      	movs	r0, r5
 37c:	4390      	bics	r0, r2
 37e:	181b      	adds	r3, r3, r0
 380:	041b      	lsls	r3, r3, #16
 382:	0c1b      	lsrs	r3, r3, #16
 384:	4285      	cmp	r5, r0
 386:	d0c0      	beq.n	30a <hrt_InitTiledText+0xe>
 388:	2240      	movs	r2, #64	; 0x40
 38a:	005b      	lsls	r3, r3, #1
 38c:	525a      	strh	r2, [r3, r1]
 38e:	e7bc      	b.n	30a <hrt_InitTiledText+0xe>
 390:	2300      	movs	r3, #0
 392:	e7e3      	b.n	35c <hrt_InitTiledText+0x60>
 394:	00000000 	andeq	r0, r0, r0
 398:	040817c0 	streq	r1, [r8], #-1984	; 0xfffff840
 39c:	06000800 	streq	r0, [r0], -r0, lsl #16
	...
 3ac:	00000421 	andeq	r0, r0, r1, lsr #8
 3b0:	00007fff 	strdeq	r7, [r0], -pc	; <UNPREDICTABLE>
 3b4:	02000004 	andeq	r0, r0, #4
 3b8:	00000000 	andeq	r0, r0, r0
 3bc:	00400040 	subeq	r0, r0, r0, asr #32

000003c0 <hrt_PrintOnTilemap>:
 3c0:	b40c      	push	{r2, r3}
 3c2:	b5f0      	push	{r4, r5, r6, r7, lr}
 3c4:	4b12      	ldr	r3, [pc, #72]	; (410 <hrt_PrintOnTilemap+0x50>)
 3c6:	781b      	ldrb	r3, [r3, #0]
 3c8:	b083      	sub	sp, #12
 3ca:	0007      	movs	r7, r0
 3cc:	000c      	movs	r4, r1
 3ce:	2b01      	cmp	r3, #1
 3d0:	d004      	beq.n	3dc <hrt_PrintOnTilemap+0x1c>
 3d2:	b003      	add	sp, #12
 3d4:	bcf0      	pop	{r4, r5, r6, r7}
 3d6:	bc08      	pop	{r3}
 3d8:	b002      	add	sp, #8
 3da:	4718      	bx	r3
 3dc:	4d0d      	ldr	r5, [pc, #52]	; (414 <hrt_PrintOnTilemap+0x54>)
 3de:	aa09      	add	r2, sp, #36	; 0x24
 3e0:	4b0d      	ldr	r3, [pc, #52]	; (418 <hrt_PrintOnTilemap+0x58>)
 3e2:	9201      	str	r2, [sp, #4]
 3e4:	9908      	ldr	r1, [sp, #32]
 3e6:	0028      	movs	r0, r5
 3e8:	f000 f84e 	bl	488 <hrt_ClearTiledText+0x68>
 3ec:	782b      	ldrb	r3, [r5, #0]
 3ee:	2b00      	cmp	r3, #0
 3f0:	d0ef      	beq.n	3d2 <hrt_PrintOnTilemap+0x12>
 3f2:	4a0a      	ldr	r2, [pc, #40]	; (41c <hrt_PrintOnTilemap+0x5c>)
 3f4:	0160      	lsls	r0, r4, #5
 3f6:	19c0      	adds	r0, r0, r7
 3f8:	6816      	ldr	r6, [r2, #0]
 3fa:	1a2d      	subs	r5, r5, r0
 3fc:	0582      	lsls	r2, r0, #22
 3fe:	3320      	adds	r3, #32
 400:	0d52      	lsrs	r2, r2, #21
 402:	5393      	strh	r3, [r2, r6]
 404:	3001      	adds	r0, #1
 406:	5c2b      	ldrb	r3, [r5, r0]
 408:	2b00      	cmp	r3, #0
 40a:	d1f7      	bne.n	3fc <hrt_PrintOnTilemap+0x3c>
 40c:	e7e1      	b.n	3d2 <hrt_PrintOnTilemap+0x12>
 40e:	46c0      	nop			; (mov r8, r8)
	...

00000420 <hrt_ClearTiledText>:
 420:	4b16      	ldr	r3, [pc, #88]	; (47c <hrt_ClearTiledText+0x5c>)
 422:	781a      	ldrb	r2, [r3, #0]
 424:	b530      	push	{r4, r5, lr}
 426:	2a01      	cmp	r2, #1
 428:	d002      	beq.n	430 <hrt_ClearTiledText+0x10>
 42a:	bc30      	pop	{r4, r5}
 42c:	bc01      	pop	{r0}
 42e:	4700      	bx	r0
 430:	4b13      	ldr	r3, [pc, #76]	; (480 <hrt_ClearTiledText+0x60>)
 432:	6819      	ldr	r1, [r3, #0]
 434:	084b      	lsrs	r3, r1, #1
 436:	425b      	negs	r3, r3
 438:	401a      	ands	r2, r3
 43a:	d01c      	beq.n	476 <hrt_ClearTiledText+0x56>
 43c:	2340      	movs	r3, #64	; 0x40
 43e:	800b      	strh	r3, [r1, #0]
 440:	3b3f      	subs	r3, #63	; 0x3f
 442:	2080      	movs	r0, #128	; 0x80
 444:	00c0      	lsls	r0, r0, #3
 446:	1a80      	subs	r0, r0, r2
 448:	0400      	lsls	r0, r0, #16
 44a:	0c04      	lsrs	r4, r0, #16
 44c:	0052      	lsls	r2, r2, #1
 44e:	0c40      	lsrs	r0, r0, #17
 450:	188a      	adds	r2, r1, r2
 452:	0080      	lsls	r0, r0, #2
 454:	4d0b      	ldr	r5, [pc, #44]	; (484 <hrt_ClearTiledText+0x64>)
 456:	1880      	adds	r0, r0, r2
 458:	c220      	stmia	r2!, {r5}
 45a:	4290      	cmp	r0, r2
 45c:	d1fc      	bne.n	458 <hrt_ClearTiledText+0x38>
 45e:	2201      	movs	r2, #1
 460:	0020      	movs	r0, r4
 462:	4390      	bics	r0, r2
 464:	181b      	adds	r3, r3, r0
 466:	041b      	lsls	r3, r3, #16
 468:	0c1b      	lsrs	r3, r3, #16
 46a:	4284      	cmp	r4, r0
 46c:	d0dd      	beq.n	42a <hrt_ClearTiledText+0xa>
 46e:	2240      	movs	r2, #64	; 0x40
 470:	005b      	lsls	r3, r3, #1
 472:	525a      	strh	r2, [r3, r1]
 474:	e7d9      	b.n	42a <hrt_ClearTiledText+0xa>
 476:	2300      	movs	r3, #0
 478:	e7e3      	b.n	442 <hrt_ClearTiledText+0x22>
 47a:	46c0      	nop			; (mov r8, r8)
	...
 484:	00400040 	subeq	r0, r0, r0, asr #32
 488:	4718      	bx	r3
 48a:	4730      	bx	r6
 48c:	4738      	bx	r7
 48e:	4758      	bx	fp

Disassembly of section .text:

00000000 <hrt_DrawCircle.part.2>:
       0:	b5f0      	push	{r4, r5, r6, r7, lr}
       2:	4645      	mov	r5, r8
       4:	46de      	mov	lr, fp
       6:	4657      	mov	r7, sl
       8:	464e      	mov	r6, r9
       a:	b5e0      	push	{r5, r6, r7, lr}
       c:	2503      	movs	r5, #3
       e:	0054      	lsls	r4, r2, #1
      10:	b085      	sub	sp, #20
      12:	1b2d      	subs	r5, r5, r4
      14:	2a00      	cmp	r2, #0
      16:	db75      	blt.n	104 <hrt_DrawCircle.part.2+0x104>
      18:	4c5e      	ldr	r4, [pc, #376]	; (194 <hrt_DrawCircle.part.2+0x194>)
      1a:	7824      	ldrb	r4, [r4, #0]
      1c:	46a4      	mov	ip, r4
      1e:	9002      	str	r0, [sp, #8]
      20:	4660      	mov	r0, ip
      22:	4c5d      	ldr	r4, [pc, #372]	; (198 <hrt_DrawCircle.part.2+0x198>)
      24:	9001      	str	r0, [sp, #4]
      26:	6826      	ldr	r6, [r4, #0]
      28:	010c      	lsls	r4, r1, #4
      2a:	1a64      	subs	r4, r4, r1
      2c:	468c      	mov	ip, r1
      2e:	9901      	ldr	r1, [sp, #4]
      30:	00e7      	lsls	r7, r4, #3
      32:	0124      	lsls	r4, r4, #4
      34:	9403      	str	r4, [sp, #12]
      36:	46b8      	mov	r8, r7
      38:	2400      	movs	r4, #0
      3a:	2901      	cmp	r1, #1
      3c:	d00f      	beq.n	5e <hrt_DrawCircle.part.2+0x5e>
      3e:	1c67      	adds	r7, r4, #1
      40:	2d00      	cmp	r5, #0
      42:	db5a      	blt.n	fa <hrt_DrawCircle.part.2+0xfa>
      44:	1e51      	subs	r1, r2, #1
      46:	1aa2      	subs	r2, r4, r2
      48:	0092      	lsls	r2, r2, #2
      4a:	320a      	adds	r2, #10
      4c:	4689      	mov	r9, r1
      4e:	18ad      	adds	r5, r5, r2
      50:	42b9      	cmp	r1, r7
      52:	db57      	blt.n	104 <hrt_DrawCircle.part.2+0x104>
      54:	464a      	mov	r2, r9
      56:	9901      	ldr	r1, [sp, #4]
      58:	003c      	movs	r4, r7
      5a:	2901      	cmp	r1, #1
      5c:	d1ef      	bne.n	3e <hrt_DrawCircle.part.2+0x3e>
      5e:	4691      	mov	r9, r2
      60:	9902      	ldr	r1, [sp, #8]
      62:	1867      	adds	r7, r4, r1
      64:	990e      	ldr	r1, [sp, #56]	; 0x38
      66:	44e1      	add	r9, ip
      68:	2903      	cmp	r1, #3
      6a:	d054      	beq.n	116 <hrt_DrawCircle.part.2+0x116>
      6c:	2904      	cmp	r1, #4
      6e:	d001      	beq.n	74 <hrt_DrawCircle.part.2+0x74>
      70:	2905      	cmp	r1, #5
      72:	d1e4      	bne.n	3e <hrt_DrawCircle.part.2+0x3e>
      74:	4649      	mov	r1, r9
      76:	4648      	mov	r0, r9
      78:	0109      	lsls	r1, r1, #4
      7a:	1a09      	subs	r1, r1, r0
      7c:	00c9      	lsls	r1, r1, #3
      7e:	468a      	mov	sl, r1
      80:	46b9      	mov	r9, r7
      82:	44d1      	add	r9, sl
      84:	4649      	mov	r1, r9
      86:	9802      	ldr	r0, [sp, #8]
      88:	0049      	lsls	r1, r1, #1
      8a:	538b      	strh	r3, [r1, r6]
      8c:	1b01      	subs	r1, r0, r4
      8e:	4689      	mov	r9, r1
      90:	44ca      	add	sl, r9
      92:	4651      	mov	r1, sl
      94:	0049      	lsls	r1, r1, #1
      96:	538b      	strh	r3, [r1, r6]
      98:	4661      	mov	r1, ip
      9a:	1a89      	subs	r1, r1, r2
      9c:	468b      	mov	fp, r1
      9e:	4658      	mov	r0, fp
      a0:	0109      	lsls	r1, r1, #4
      a2:	1a09      	subs	r1, r1, r0
      a4:	00c9      	lsls	r1, r1, #3
      a6:	468a      	mov	sl, r1
      a8:	4457      	add	r7, sl
      aa:	007f      	lsls	r7, r7, #1
      ac:	53bb      	strh	r3, [r7, r6]
      ae:	464f      	mov	r7, r9
      b0:	0121      	lsls	r1, r4, #4
      b2:	9802      	ldr	r0, [sp, #8]
      b4:	4689      	mov	r9, r1
      b6:	4457      	add	r7, sl
      b8:	1b09      	subs	r1, r1, r4
      ba:	007f      	lsls	r7, r7, #1
      bc:	00c9      	lsls	r1, r1, #3
      be:	53bb      	strh	r3, [r7, r6]
      c0:	468a      	mov	sl, r1
      c2:	1887      	adds	r7, r0, r2
      c4:	46bb      	mov	fp, r7
      c6:	44c2      	add	sl, r8
      c8:	44d3      	add	fp, sl
      ca:	4659      	mov	r1, fp
      cc:	0049      	lsls	r1, r1, #1
      ce:	538b      	strh	r3, [r1, r6]
      d0:	1a81      	subs	r1, r0, r2
      d2:	468b      	mov	fp, r1
      d4:	44da      	add	sl, fp
      d6:	4651      	mov	r1, sl
      d8:	0049      	lsls	r1, r1, #1
      da:	538b      	strh	r3, [r1, r6]
      dc:	4649      	mov	r1, r9
      de:	1a61      	subs	r1, r4, r1
      e0:	00c9      	lsls	r1, r1, #3
      e2:	4689      	mov	r9, r1
      e4:	44c1      	add	r9, r8
      e6:	444f      	add	r7, r9
      e8:	007f      	lsls	r7, r7, #1
      ea:	53bb      	strh	r3, [r7, r6]
      ec:	464f      	mov	r7, r9
      ee:	445f      	add	r7, fp
      f0:	007f      	lsls	r7, r7, #1
      f2:	53bb      	strh	r3, [r7, r6]
      f4:	1c67      	adds	r7, r4, #1
      f6:	2d00      	cmp	r5, #0
      f8:	daa4      	bge.n	44 <hrt_DrawCircle.part.2+0x44>
      fa:	00bc      	lsls	r4, r7, #2
      fc:	3402      	adds	r4, #2
      fe:	192d      	adds	r5, r5, r4
     100:	42ba      	cmp	r2, r7
     102:	daa8      	bge.n	56 <hrt_DrawCircle.part.2+0x56>
     104:	b005      	add	sp, #20
     106:	bc3c      	pop	{r2, r3, r4, r5}
     108:	4690      	mov	r8, r2
     10a:	4699      	mov	r9, r3
     10c:	46a2      	mov	sl, r4
     10e:	46ab      	mov	fp, r5
     110:	bcf0      	pop	{r4, r5, r6, r7}
     112:	bc01      	pop	{r0}
     114:	4700      	bx	r0
     116:	4649      	mov	r1, r9
     118:	4648      	mov	r0, r9
     11a:	0109      	lsls	r1, r1, #4
     11c:	1a09      	subs	r1, r1, r0
     11e:	0109      	lsls	r1, r1, #4
     120:	4689      	mov	r9, r1
     122:	46ba      	mov	sl, r7
     124:	44ca      	add	sl, r9
     126:	4651      	mov	r1, sl
     128:	9802      	ldr	r0, [sp, #8]
     12a:	0049      	lsls	r1, r1, #1
     12c:	538b      	strh	r3, [r1, r6]
     12e:	1b01      	subs	r1, r0, r4
     130:	468a      	mov	sl, r1
     132:	44d1      	add	r9, sl
     134:	4649      	mov	r1, r9
     136:	0049      	lsls	r1, r1, #1
     138:	538b      	strh	r3, [r1, r6]
     13a:	4661      	mov	r1, ip
     13c:	1a89      	subs	r1, r1, r2
     13e:	468b      	mov	fp, r1
     140:	4658      	mov	r0, fp
     142:	0109      	lsls	r1, r1, #4
     144:	1a09      	subs	r1, r1, r0
     146:	0109      	lsls	r1, r1, #4
     148:	4689      	mov	r9, r1
     14a:	444f      	add	r7, r9
     14c:	007f      	lsls	r7, r7, #1
     14e:	53bb      	strh	r3, [r7, r6]
     150:	000f      	movs	r7, r1
     152:	0121      	lsls	r1, r4, #4
     154:	4689      	mov	r9, r1
     156:	1b09      	subs	r1, r1, r4
     158:	0109      	lsls	r1, r1, #4
     15a:	4457      	add	r7, sl
     15c:	468a      	mov	sl, r1
     15e:	9903      	ldr	r1, [sp, #12]
     160:	468b      	mov	fp, r1
     162:	9802      	ldr	r0, [sp, #8]
     164:	007f      	lsls	r7, r7, #1
     166:	53bb      	strh	r3, [r7, r6]
     168:	1887      	adds	r7, r0, r2
     16a:	44da      	add	sl, fp
     16c:	46bb      	mov	fp, r7
     16e:	44d3      	add	fp, sl
     170:	4658      	mov	r0, fp
     172:	0040      	lsls	r0, r0, #1
     174:	5383      	strh	r3, [r0, r6]
     176:	9802      	ldr	r0, [sp, #8]
     178:	1a80      	subs	r0, r0, r2
     17a:	4683      	mov	fp, r0
     17c:	44da      	add	sl, fp
     17e:	4650      	mov	r0, sl
     180:	0040      	lsls	r0, r0, #1
     182:	5383      	strh	r3, [r0, r6]
     184:	4648      	mov	r0, r9
     186:	1a20      	subs	r0, r4, r0
     188:	0100      	lsls	r0, r0, #4
     18a:	4681      	mov	r9, r0
     18c:	468a      	mov	sl, r1
     18e:	44d1      	add	r9, sl
     190:	e7a9      	b.n	e6 <hrt_DrawCircle.part.2+0xe6>
     192:	46c0      	nop			; (mov r8, r8)
	...

0000019c <hrt_FlipBGBuffer>:
     19c:	4b0b      	ldr	r3, [pc, #44]	; (1cc <hrt_FlipBGBuffer+0x30>)
     19e:	781b      	ldrb	r3, [r3, #0]
     1a0:	2b01      	cmp	r3, #1
     1a2:	d000      	beq.n	1a6 <hrt_FlipBGBuffer+0xa>
     1a4:	4770      	bx	lr
     1a6:	2280      	movs	r2, #128	; 0x80
     1a8:	2110      	movs	r1, #16
     1aa:	04d2      	lsls	r2, r2, #19
     1ac:	8813      	ldrh	r3, [r2, #0]
     1ae:	4219      	tst	r1, r3
     1b0:	d005      	beq.n	1be <hrt_FlipBGBuffer+0x22>
     1b2:	438b      	bics	r3, r1
     1b4:	8013      	strh	r3, [r2, #0]
     1b6:	4b06      	ldr	r3, [pc, #24]	; (1d0 <hrt_FlipBGBuffer+0x34>)
     1b8:	685a      	ldr	r2, [r3, #4]
     1ba:	601a      	str	r2, [r3, #0]
     1bc:	e7f2      	b.n	1a4 <hrt_FlipBGBuffer+0x8>
     1be:	2110      	movs	r1, #16
     1c0:	430b      	orrs	r3, r1
     1c2:	8013      	strh	r3, [r2, #0]
     1c4:	4b02      	ldr	r3, [pc, #8]	; (1d0 <hrt_FlipBGBuffer+0x34>)
     1c6:	689a      	ldr	r2, [r3, #8]
     1c8:	601a      	str	r2, [r3, #0]
     1ca:	e7eb      	b.n	1a4 <hrt_FlipBGBuffer+0x8>
	...

000001d4 <hrt_GetOffset>:
     1d4:	4a0b      	ldr	r2, [pc, #44]	; (204 <hrt_GetOffset+0x30>)
     1d6:	7811      	ldrb	r1, [r2, #0]
     1d8:	2300      	movs	r3, #0
     1da:	2901      	cmp	r1, #1
     1dc:	d001      	beq.n	1e2 <hrt_GetOffset+0xe>
     1de:	0018      	movs	r0, r3
     1e0:	4770      	bx	lr
     1e2:	2804      	cmp	r0, #4
     1e4:	d8fb      	bhi.n	1de <hrt_GetOffset+0xa>
     1e6:	4b08      	ldr	r3, [pc, #32]	; (208 <hrt_GetOffset+0x34>)
     1e8:	0080      	lsls	r0, r0, #2
     1ea:	581b      	ldr	r3, [r3, r0]
     1ec:	469f      	mov	pc, r3
     1ee:	6953      	ldr	r3, [r2, #20]
     1f0:	e7f5      	b.n	1de <hrt_GetOffset+0xa>
     1f2:	68d3      	ldr	r3, [r2, #12]
     1f4:	e7f3      	b.n	1de <hrt_GetOffset+0xa>
     1f6:	6893      	ldr	r3, [r2, #8]
     1f8:	e7f1      	b.n	1de <hrt_GetOffset+0xa>
     1fa:	6853      	ldr	r3, [r2, #4]
     1fc:	e7ef      	b.n	1de <hrt_GetOffset+0xa>
     1fe:	6913      	ldr	r3, [r2, #16]
     200:	e7ed      	b.n	1de <hrt_GetOffset+0xa>
     202:	46c0      	nop			; (mov r8, r8)
	...

0000020c <hrt_SetOffset>:
     20c:	4b0a      	ldr	r3, [pc, #40]	; (238 <hrt_SetOffset+0x2c>)
     20e:	781a      	ldrb	r2, [r3, #0]
     210:	2a01      	cmp	r2, #1
     212:	d000      	beq.n	216 <hrt_SetOffset+0xa>
     214:	4770      	bx	lr
     216:	2804      	cmp	r0, #4
     218:	d8fc      	bhi.n	214 <hrt_SetOffset+0x8>
     21a:	4a08      	ldr	r2, [pc, #32]	; (23c <hrt_SetOffset+0x30>)
     21c:	0080      	lsls	r0, r0, #2
     21e:	5812      	ldr	r2, [r2, r0]
     220:	4697      	mov	pc, r2
     222:	6159      	str	r1, [r3, #20]
     224:	e7f6      	b.n	214 <hrt_SetOffset+0x8>
     226:	60d9      	str	r1, [r3, #12]
     228:	e7f4      	b.n	214 <hrt_SetOffset+0x8>
     22a:	6099      	str	r1, [r3, #8]
     22c:	e7f2      	b.n	214 <hrt_SetOffset+0x8>
     22e:	6059      	str	r1, [r3, #4]
     230:	e7f0      	b.n	214 <hrt_SetOffset+0x8>
     232:	6119      	str	r1, [r3, #16]
     234:	e7ee      	b.n	214 <hrt_SetOffset+0x8>
     236:	46c0      	nop			; (mov r8, r8)
     238:	00000000 	andeq	r0, r0, r0
     23c:	00000014 	andeq	r0, r0, r4, lsl r0

00000240 <hrt_DMA_Copy>:
     240:	b530      	push	{r4, r5, lr}
     242:	4c16      	ldr	r4, [pc, #88]	; (29c <hrt_DMA_Copy+0x5c>)
     244:	7824      	ldrb	r4, [r4, #0]
     246:	2c01      	cmp	r4, #1
     248:	d002      	beq.n	250 <hrt_DMA_Copy+0x10>
     24a:	bc30      	pop	{r4, r5}
     24c:	bc01      	pop	{r0}
     24e:	4700      	bx	r0
     250:	0044      	lsls	r4, r0, #1
     252:	1824      	adds	r4, r4, r0
     254:	4d12      	ldr	r5, [pc, #72]	; (2a0 <hrt_DMA_Copy+0x60>)
     256:	00a4      	lsls	r4, r4, #2
     258:	1965      	adds	r5, r4, r5
     25a:	6029      	str	r1, [r5, #0]
     25c:	4911      	ldr	r1, [pc, #68]	; (2a4 <hrt_DMA_Copy+0x64>)
     25e:	468c      	mov	ip, r1
     260:	4464      	add	r4, ip
     262:	6022      	str	r2, [r4, #0]
     264:	2801      	cmp	r0, #1
     266:	d014      	beq.n	292 <hrt_DMA_Copy+0x52>
     268:	2800      	cmp	r0, #0
     26a:	d00d      	beq.n	288 <hrt_DMA_Copy+0x48>
     26c:	2802      	cmp	r0, #2
     26e:	d006      	beq.n	27e <hrt_DMA_Copy+0x3e>
     270:	2803      	cmp	r0, #3
     272:	d1ea      	bne.n	24a <hrt_DMA_Copy+0xa>
     274:	9a03      	ldr	r2, [sp, #12]
     276:	4313      	orrs	r3, r2
     278:	4a0b      	ldr	r2, [pc, #44]	; (2a8 <hrt_DMA_Copy+0x68>)
     27a:	6013      	str	r3, [r2, #0]
     27c:	e7e5      	b.n	24a <hrt_DMA_Copy+0xa>
     27e:	9a03      	ldr	r2, [sp, #12]
     280:	4313      	orrs	r3, r2
     282:	4a0a      	ldr	r2, [pc, #40]	; (2ac <hrt_DMA_Copy+0x6c>)
     284:	6013      	str	r3, [r2, #0]
     286:	e7e0      	b.n	24a <hrt_DMA_Copy+0xa>
     288:	9a03      	ldr	r2, [sp, #12]
     28a:	4313      	orrs	r3, r2
     28c:	4a08      	ldr	r2, [pc, #32]	; (2b0 <hrt_DMA_Copy+0x70>)
     28e:	6013      	str	r3, [r2, #0]
     290:	e7db      	b.n	24a <hrt_DMA_Copy+0xa>
     292:	9a03      	ldr	r2, [sp, #12]
     294:	4313      	orrs	r3, r2
     296:	4a07      	ldr	r2, [pc, #28]	; (2b4 <hrt_DMA_Copy+0x74>)
     298:	6013      	str	r3, [r2, #0]
     29a:	e7d6      	b.n	24a <hrt_DMA_Copy+0xa>
     29c:	00000000 	andeq	r0, r0, r0
     2a0:	040000b0 	streq	r0, [r0], #-176	; 0xffffff50
     2a4:	040000b4 	streq	r0, [r0], #-180	; 0xffffff4c
     2a8:	040000dc 	streq	r0, [r0], #-220	; 0xffffff24
     2ac:	040000d0 	streq	r0, [r0], #-208	; 0xffffff30
     2b0:	040000b8 	streq	r0, [r0], #-184	; 0xffffff48
     2b4:	040000c4 	streq	r0, [r0], #-196	; 0xffffff3c

000002b8 <hrt_EditBG>:
     2b8:	b5f8      	push	{r3, r4, r5, r6, r7, lr}
     2ba:	46de      	mov	lr, fp
     2bc:	4657      	mov	r7, sl
     2be:	464e      	mov	r6, r9
     2c0:	4645      	mov	r5, r8
     2c2:	001c      	movs	r4, r3
     2c4:	4b5b      	ldr	r3, [pc, #364]	; (434 <hrt_EditBG+0x17c>)
     2c6:	781b      	ldrb	r3, [r3, #0]
     2c8:	b5e0      	push	{r5, r6, r7, lr}
     2ca:	2b01      	cmp	r3, #1
     2cc:	d007      	beq.n	2de <hrt_EditBG+0x26>
     2ce:	bc3c      	pop	{r2, r3, r4, r5}
     2d0:	4690      	mov	r8, r2
     2d2:	4699      	mov	r9, r3
     2d4:	46a2      	mov	sl, r4
     2d6:	46ab      	mov	fp, r5
     2d8:	bcf8      	pop	{r3, r4, r5, r6, r7}
     2da:	bc01      	pop	{r0}
     2dc:	4700      	bx	r0
     2de:	2801      	cmp	r0, #1
     2e0:	d100      	bne.n	2e4 <hrt_EditBG+0x2c>
     2e2:	e0a2      	b.n	42a <hrt_EditBG+0x172>
     2e4:	2800      	cmp	r0, #0
     2e6:	d100      	bne.n	2ea <hrt_EditBG+0x32>
     2e8:	e09a      	b.n	420 <hrt_EditBG+0x168>
     2ea:	2802      	cmp	r0, #2
     2ec:	d04c      	beq.n	388 <hrt_EditBG+0xd0>
     2ee:	2803      	cmp	r0, #3
     2f0:	d1ed      	bne.n	2ce <hrt_EditBG+0x16>
     2f2:	9b0b      	ldr	r3, [sp, #44]	; 0x2c
     2f4:	425f      	negs	r7, r3
     2f6:	9b0c      	ldr	r3, [sp, #48]	; 0x30
     2f8:	4258      	negs	r0, r3
     2fa:	0400      	lsls	r0, r0, #16
     2fc:	0c03      	lsrs	r3, r0, #16
     2fe:	469a      	mov	sl, r3
     300:	4b4d      	ldr	r3, [pc, #308]	; (438 <hrt_EditBG+0x180>)
     302:	007f      	lsls	r7, r7, #1
     304:	469b      	mov	fp, r3
     306:	5afb      	ldrh	r3, [r7, r3]
     308:	4655      	mov	r5, sl
     30a:	469c      	mov	ip, r3
     30c:	9b0d      	ldr	r3, [sp, #52]	; 0x34
     30e:	041b      	lsls	r3, r3, #16
     310:	0c1b      	lsrs	r3, r3, #16
     312:	0618      	lsls	r0, r3, #24
     314:	0c00      	lsrs	r0, r0, #16
     316:	4680      	mov	r8, r0
     318:	4660      	mov	r0, ip
     31a:	4368      	muls	r0, r5
     31c:	4681      	mov	r9, r0
     31e:	4e47      	ldr	r6, [pc, #284]	; (43c <hrt_EditBG+0x184>)
     320:	5bbf      	ldrh	r7, [r7, r6]
     322:	0038      	movs	r0, r7
     324:	4358      	muls	r0, r3
     326:	4441      	add	r1, r8
     328:	4449      	add	r1, r9
     32a:	4681      	mov	r9, r0
     32c:	4844      	ldr	r0, [pc, #272]	; (440 <hrt_EditBG+0x188>)
     32e:	4449      	add	r1, r9
     330:	8001      	strh	r1, [r0, #0]
     332:	4650      	mov	r0, sl
     334:	4378      	muls	r0, r7
     336:	21b4      	movs	r1, #180	; 0xb4
     338:	4442      	add	r2, r8
     33a:	1880      	adds	r0, r0, r2
     33c:	4662      	mov	r2, ip
     33e:	435a      	muls	r2, r3
     340:	4b40      	ldr	r3, [pc, #256]	; (444 <hrt_EditBG+0x18c>)
     342:	1a80      	subs	r0, r0, r2
     344:	8018      	strh	r0, [r3, #0]
     346:	0049      	lsls	r1, r1, #1
     348:	980b      	ldr	r0, [sp, #44]	; 0x2c
     34a:	4b3f      	ldr	r3, [pc, #252]	; (448 <hrt_EditBG+0x190>)
     34c:	f001 ff0e 	bl	216c <hrt_DSPIsLinearOBJEnabled+0x1c>
     350:	465b      	mov	r3, fp
     352:	0049      	lsls	r1, r1, #1
     354:	5ecb      	ldrsh	r3, [r1, r3]
     356:	0022      	movs	r2, r4
     358:	435a      	muls	r2, r3
     35a:	483c      	ldr	r0, [pc, #240]	; (44c <hrt_EditBG+0x194>)
     35c:	1212      	asrs	r2, r2, #8
     35e:	8002      	strh	r2, [r0, #0]
     360:	5f8a      	ldrsh	r2, [r1, r6]
     362:	990a      	ldr	r1, [sp, #40]	; 0x28
     364:	468c      	mov	ip, r1
     366:	4661      	mov	r1, ip
     368:	4351      	muls	r1, r2
     36a:	4839      	ldr	r0, [pc, #228]	; (450 <hrt_EditBG+0x198>)
     36c:	1209      	asrs	r1, r1, #8
     36e:	8001      	strh	r1, [r0, #0]
     370:	4251      	negs	r1, r2
     372:	000a      	movs	r2, r1
     374:	4362      	muls	r2, r4
     376:	4937      	ldr	r1, [pc, #220]	; (454 <hrt_EditBG+0x19c>)
     378:	1212      	asrs	r2, r2, #8
     37a:	800a      	strh	r2, [r1, #0]
     37c:	9a0a      	ldr	r2, [sp, #40]	; 0x28
     37e:	435a      	muls	r2, r3
     380:	1213      	asrs	r3, r2, #8
     382:	4a35      	ldr	r2, [pc, #212]	; (458 <hrt_EditBG+0x1a0>)
     384:	8013      	strh	r3, [r2, #0]
     386:	e7a2      	b.n	2ce <hrt_EditBG+0x16>
     388:	9b0b      	ldr	r3, [sp, #44]	; 0x2c
     38a:	4258      	negs	r0, r3
     38c:	9b0c      	ldr	r3, [sp, #48]	; 0x30
     38e:	425b      	negs	r3, r3
     390:	041b      	lsls	r3, r3, #16
     392:	0c1b      	lsrs	r3, r3, #16
     394:	469c      	mov	ip, r3
     396:	4b28      	ldr	r3, [pc, #160]	; (438 <hrt_EditBG+0x180>)
     398:	0040      	lsls	r0, r0, #1
     39a:	469a      	mov	sl, r3
     39c:	5ac3      	ldrh	r3, [r0, r3]
     39e:	4699      	mov	r9, r3
     3a0:	464e      	mov	r6, r9
     3a2:	4665      	mov	r5, ip
     3a4:	4375      	muls	r5, r6
     3a6:	46a8      	mov	r8, r5
     3a8:	9b0d      	ldr	r3, [sp, #52]	; 0x34
     3aa:	041f      	lsls	r7, r3, #16
     3ac:	4b23      	ldr	r3, [pc, #140]	; (43c <hrt_EditBG+0x184>)
     3ae:	469b      	mov	fp, r3
     3b0:	5ac3      	ldrh	r3, [r0, r3]
     3b2:	0c3f      	lsrs	r7, r7, #16
     3b4:	001d      	movs	r5, r3
     3b6:	437d      	muls	r5, r7
     3b8:	0638      	lsls	r0, r7, #24
     3ba:	0c00      	lsrs	r0, r0, #16
     3bc:	1841      	adds	r1, r0, r1
     3be:	4441      	add	r1, r8
     3c0:	46a8      	mov	r8, r5
     3c2:	4d26      	ldr	r5, [pc, #152]	; (45c <hrt_EditBG+0x1a4>)
     3c4:	4441      	add	r1, r8
     3c6:	8029      	strh	r1, [r5, #0]
     3c8:	4661      	mov	r1, ip
     3ca:	4359      	muls	r1, r3
     3cc:	1882      	adds	r2, r0, r2
     3ce:	188b      	adds	r3, r1, r2
     3d0:	21b4      	movs	r1, #180	; 0xb4
     3d2:	464a      	mov	r2, r9
     3d4:	437a      	muls	r2, r7
     3d6:	1a9b      	subs	r3, r3, r2
     3d8:	4a21      	ldr	r2, [pc, #132]	; (460 <hrt_EditBG+0x1a8>)
     3da:	980b      	ldr	r0, [sp, #44]	; 0x2c
     3dc:	8013      	strh	r3, [r2, #0]
     3de:	0049      	lsls	r1, r1, #1
     3e0:	4b19      	ldr	r3, [pc, #100]	; (448 <hrt_EditBG+0x190>)
     3e2:	f001 fec3 	bl	216c <hrt_DSPIsLinearOBJEnabled+0x1c>
     3e6:	4653      	mov	r3, sl
     3e8:	0049      	lsls	r1, r1, #1
     3ea:	5ecb      	ldrsh	r3, [r1, r3]
     3ec:	0022      	movs	r2, r4
     3ee:	435a      	muls	r2, r3
     3f0:	481c      	ldr	r0, [pc, #112]	; (464 <hrt_EditBG+0x1ac>)
     3f2:	1212      	asrs	r2, r2, #8
     3f4:	8002      	strh	r2, [r0, #0]
     3f6:	465a      	mov	r2, fp
     3f8:	5e8a      	ldrsh	r2, [r1, r2]
     3fa:	990a      	ldr	r1, [sp, #40]	; 0x28
     3fc:	468c      	mov	ip, r1
     3fe:	4661      	mov	r1, ip
     400:	4351      	muls	r1, r2
     402:	4819      	ldr	r0, [pc, #100]	; (468 <hrt_EditBG+0x1b0>)
     404:	1209      	asrs	r1, r1, #8
     406:	8001      	strh	r1, [r0, #0]
     408:	4251      	negs	r1, r2
     40a:	000a      	movs	r2, r1
     40c:	4362      	muls	r2, r4
     40e:	4917      	ldr	r1, [pc, #92]	; (46c <hrt_EditBG+0x1b4>)
     410:	1212      	asrs	r2, r2, #8
     412:	800a      	strh	r2, [r1, #0]
     414:	9a0a      	ldr	r2, [sp, #40]	; 0x28
     416:	435a      	muls	r2, r3
     418:	1213      	asrs	r3, r2, #8
     41a:	4a15      	ldr	r2, [pc, #84]	; (470 <hrt_EditBG+0x1b8>)
     41c:	8013      	strh	r3, [r2, #0]
     41e:	e756      	b.n	2ce <hrt_EditBG+0x16>
     420:	4b14      	ldr	r3, [pc, #80]	; (474 <hrt_EditBG+0x1bc>)
     422:	8019      	strh	r1, [r3, #0]
     424:	4b14      	ldr	r3, [pc, #80]	; (478 <hrt_EditBG+0x1c0>)
     426:	801a      	strh	r2, [r3, #0]
     428:	e751      	b.n	2ce <hrt_EditBG+0x16>
     42a:	4b14      	ldr	r3, [pc, #80]	; (47c <hrt_EditBG+0x1c4>)
     42c:	8019      	strh	r1, [r3, #0]
     42e:	4b14      	ldr	r3, [pc, #80]	; (480 <hrt_EditBG+0x1c8>)
     430:	801a      	strh	r2, [r3, #0]
     432:	e74c      	b.n	2ce <hrt_EditBG+0x16>
	...
     440:	0400001c 	streq	r0, [r0], #-28	; 0xffffffe4
     444:	0400001e 	streq	r0, [r0], #-30	; 0xffffffe2
     448:	00000000 	andeq	r0, r0, r0
     44c:	04000030 	streq	r0, [r0], #-48	; 0xffffffd0
     450:	04000032 	streq	r0, [r0], #-50	; 0xffffffce
     454:	04000034 	streq	r0, [r0], #-52	; 0xffffffcc
     458:	04000036 	streq	r0, [r0], #-54	; 0xffffffca
     45c:	04000018 	streq	r0, [r0], #-24	; 0xffffffe8
     460:	0400001a 	streq	r0, [r0], #-26	; 0xffffffe6
     464:	04000020 	streq	r0, [r0], #-32	; 0xffffffe0
     468:	04000022 	streq	r0, [r0], #-34	; 0xffffffde
     46c:	04000024 	streq	r0, [r0], #-36	; 0xffffffdc
     470:	04000026 	streq	r0, [r0], #-38	; 0xffffffda
     474:	04000010 	streq	r0, [r0], #-16
     478:	04000012 	streq	r0, [r0], #-18	; 0xffffffee
     47c:	04000014 	streq	r0, [r0], #-20	; 0xffffffec
     480:	04000016 	streq	r0, [r0], #-22	; 0xffffffea

00000484 <hrt_LoadBGPal>:
     484:	b5f0      	push	{r4, r5, r6, r7, lr}
     486:	46ce      	mov	lr, r9
     488:	4647      	mov	r7, r8
     48a:	4b28      	ldr	r3, [pc, #160]	; (52c <hrt_LoadBGPal+0xa8>)
     48c:	4699      	mov	r9, r3
     48e:	781b      	ldrb	r3, [r3, #0]
     490:	b580      	push	{r7, lr}
     492:	2b01      	cmp	r3, #1
     494:	d005      	beq.n	4a2 <hrt_LoadBGPal+0x1e>
     496:	bc0c      	pop	{r2, r3}
     498:	4690      	mov	r8, r2
     49a:	4699      	mov	r9, r3
     49c:	bcf0      	pop	{r4, r5, r6, r7}
     49e:	bc01      	pop	{r0}
     4a0:	4700      	bx	r0
     4a2:	464b      	mov	r3, r9
     4a4:	695a      	ldr	r2, [r3, #20]
     4a6:	2900      	cmp	r1, #0
     4a8:	d032      	beq.n	510 <hrt_LoadBGPal+0x8c>
     4aa:	4b21      	ldr	r3, [pc, #132]	; (530 <hrt_LoadBGPal+0xac>)
     4ac:	68de      	ldr	r6, [r3, #12]
     4ae:	0053      	lsls	r3, r2, #1
     4b0:	18f4      	adds	r4, r6, r3
     4b2:	0025      	movs	r5, r4
     4b4:	2703      	movs	r7, #3
     4b6:	4305      	orrs	r5, r0
     4b8:	402f      	ands	r7, r5
     4ba:	427d      	negs	r5, r7
     4bc:	417d      	adcs	r5, r7
     4be:	46a8      	mov	r8, r5
     4c0:	250b      	movs	r5, #11
     4c2:	46ac      	mov	ip, r5
     4c4:	1e4f      	subs	r7, r1, #1
     4c6:	45bc      	cmp	ip, r7
     4c8:	41bf      	sbcs	r7, r7
     4ca:	4645      	mov	r5, r8
     4cc:	427f      	negs	r7, r7
     4ce:	422f      	tst	r7, r5
     4d0:	d022      	beq.n	518 <hrt_LoadBGPal+0x94>
     4d2:	2700      	movs	r7, #0
     4d4:	003d      	movs	r5, r7
     4d6:	3304      	adds	r3, #4
     4d8:	18f3      	adds	r3, r6, r3
     4da:	4298      	cmp	r0, r3
     4dc:	417d      	adcs	r5, r7
     4de:	002b      	movs	r3, r5
     4e0:	1d05      	adds	r5, r0, #4
     4e2:	42ac      	cmp	r4, r5
     4e4:	417f      	adcs	r7, r7
     4e6:	431f      	orrs	r7, r3
     4e8:	d016      	beq.n	518 <hrt_LoadBGPal+0x94>
     4ea:	2300      	movs	r3, #0
     4ec:	084f      	lsrs	r7, r1, #1
     4ee:	00bf      	lsls	r7, r7, #2
     4f0:	58c5      	ldr	r5, [r0, r3]
     4f2:	50e5      	str	r5, [r4, r3]
     4f4:	3304      	adds	r3, #4
     4f6:	42bb      	cmp	r3, r7
     4f8:	d1fa      	bne.n	4f0 <hrt_LoadBGPal+0x6c>
     4fa:	2301      	movs	r3, #1
     4fc:	000c      	movs	r4, r1
     4fe:	439c      	bics	r4, r3
     500:	0023      	movs	r3, r4
     502:	42a1      	cmp	r1, r4
     504:	d004      	beq.n	510 <hrt_LoadBGPal+0x8c>
     506:	0064      	lsls	r4, r4, #1
     508:	5a20      	ldrh	r0, [r4, r0]
     50a:	18d3      	adds	r3, r2, r3
     50c:	005b      	lsls	r3, r3, #1
     50e:	5398      	strh	r0, [r3, r6]
     510:	464b      	mov	r3, r9
     512:	1889      	adds	r1, r1, r2
     514:	6159      	str	r1, [r3, #20]
     516:	e7be      	b.n	496 <hrt_LoadBGPal+0x12>
     518:	2300      	movs	r3, #0
     51a:	2600      	movs	r6, #0
     51c:	5ac7      	ldrh	r7, [r0, r3]
     51e:	3601      	adds	r6, #1
     520:	52e7      	strh	r7, [r4, r3]
     522:	3302      	adds	r3, #2
     524:	42b1      	cmp	r1, r6
     526:	dcf9      	bgt.n	51c <hrt_LoadBGPal+0x98>
     528:	e7f2      	b.n	510 <hrt_LoadBGPal+0x8c>
     52a:	46c0      	nop			; (mov r8, r8)
	...

00000534 <hrt_DrawPixel>:
     534:	b510      	push	{r4, lr}
     536:	4c0d      	ldr	r4, [pc, #52]	; (56c <hrt_DrawPixel+0x38>)
     538:	7824      	ldrb	r4, [r4, #0]
     53a:	2c01      	cmp	r4, #1
     53c:	d002      	beq.n	544 <hrt_DrawPixel+0x10>
     53e:	bc10      	pop	{r4}
     540:	bc01      	pop	{r0}
     542:	4700      	bx	r0
     544:	2803      	cmp	r0, #3
     546:	d00c      	beq.n	562 <hrt_DrawPixel+0x2e>
     548:	2804      	cmp	r0, #4
     54a:	d001      	beq.n	550 <hrt_DrawPixel+0x1c>
     54c:	2805      	cmp	r0, #5
     54e:	d1f6      	bne.n	53e <hrt_DrawPixel+0xa>
     550:	0110      	lsls	r0, r2, #4
     552:	1a82      	subs	r2, r0, r2
     554:	00d2      	lsls	r2, r2, #3
     556:	1852      	adds	r2, r2, r1
     558:	4905      	ldr	r1, [pc, #20]	; (570 <hrt_DrawPixel+0x3c>)
     55a:	6809      	ldr	r1, [r1, #0]
     55c:	0052      	lsls	r2, r2, #1
     55e:	5253      	strh	r3, [r2, r1]
     560:	e7ed      	b.n	53e <hrt_DrawPixel+0xa>
     562:	0110      	lsls	r0, r2, #4
     564:	1a82      	subs	r2, r0, r2
     566:	0112      	lsls	r2, r2, #4
     568:	e7f5      	b.n	556 <hrt_DrawPixel+0x22>
     56a:	46c0      	nop			; (mov r8, r8)
	...

00000574 <hrt_GetPixelInMode3>:
     574:	4a07      	ldr	r2, [pc, #28]	; (594 <hrt_GetPixelInMode3+0x20>)
     576:	7812      	ldrb	r2, [r2, #0]
     578:	2300      	movs	r3, #0
     57a:	2a01      	cmp	r2, #1
     57c:	d001      	beq.n	582 <hrt_GetPixelInMode3+0xe>
     57e:	0018      	movs	r0, r3
     580:	4770      	bx	lr
     582:	010b      	lsls	r3, r1, #4
     584:	1a5b      	subs	r3, r3, r1
     586:	4a04      	ldr	r2, [pc, #16]	; (598 <hrt_GetPixelInMode3+0x24>)
     588:	011b      	lsls	r3, r3, #4
     58a:	181b      	adds	r3, r3, r0
     58c:	6812      	ldr	r2, [r2, #0]
     58e:	005b      	lsls	r3, r3, #1
     590:	5a9b      	ldrh	r3, [r3, r2]
     592:	e7f4      	b.n	57e <hrt_GetPixelInMode3+0xa>
	...

0000059c <hrt_GetPixelInMode4>:
     59c:	4a09      	ldr	r2, [pc, #36]	; (5c4 <hrt_GetPixelInMode4+0x28>)
     59e:	7812      	ldrb	r2, [r2, #0]
     5a0:	2300      	movs	r3, #0
     5a2:	2a01      	cmp	r2, #1
     5a4:	d001      	beq.n	5aa <hrt_GetPixelInMode4+0xe>
     5a6:	0018      	movs	r0, r3
     5a8:	4770      	bx	lr
     5aa:	010b      	lsls	r3, r1, #4
     5ac:	4a06      	ldr	r2, [pc, #24]	; (5c8 <hrt_GetPixelInMode4+0x2c>)
     5ae:	1a5b      	subs	r3, r3, r1
     5b0:	00db      	lsls	r3, r3, #3
     5b2:	6811      	ldr	r1, [r2, #0]
     5b4:	181b      	adds	r3, r3, r0
     5b6:	005b      	lsls	r3, r3, #1
     5b8:	5ccb      	ldrb	r3, [r1, r3]
     5ba:	68d2      	ldr	r2, [r2, #12]
     5bc:	005b      	lsls	r3, r3, #1
     5be:	5a9b      	ldrh	r3, [r3, r2]
     5c0:	e7f1      	b.n	5a6 <hrt_GetPixelInMode4+0xa>
     5c2:	46c0      	nop			; (mov r8, r8)
	...

000005cc <hrt_CyclePalette>:
     5cc:	4b1c      	ldr	r3, [pc, #112]	; (640 <hrt_CyclePalette+0x74>)
     5ce:	781b      	ldrb	r3, [r3, #0]
     5d0:	b510      	push	{r4, lr}
     5d2:	2b01      	cmp	r3, #1
     5d4:	d002      	beq.n	5dc <hrt_CyclePalette+0x10>
     5d6:	bc10      	pop	{r4}
     5d8:	bc01      	pop	{r0}
     5da:	4700      	bx	r0
     5dc:	2a00      	cmp	r2, #0
     5de:	d018      	beq.n	612 <hrt_CyclePalette+0x46>
     5e0:	2a01      	cmp	r2, #1
     5e2:	d1f8      	bne.n	5d6 <hrt_CyclePalette+0xa>
     5e4:	4a17      	ldr	r2, [pc, #92]	; (644 <hrt_CyclePalette+0x78>)
     5e6:	4694      	mov	ip, r2
     5e8:	4a17      	ldr	r2, [pc, #92]	; (648 <hrt_CyclePalette+0x7c>)
     5ea:	1a0b      	subs	r3, r1, r0
     5ec:	005b      	lsls	r3, r3, #1
     5ee:	8812      	ldrh	r2, [r2, #0]
     5f0:	4463      	add	r3, ip
     5f2:	801a      	strh	r2, [r3, #0]
     5f4:	2900      	cmp	r1, #0
     5f6:	ddee      	ble.n	5d6 <hrt_CyclePalette+0xa>
     5f8:	4b14      	ldr	r3, [pc, #80]	; (64c <hrt_CyclePalette+0x80>)
     5fa:	469c      	mov	ip, r3
     5fc:	4460      	add	r0, ip
     5fe:	1809      	adds	r1, r1, r0
     600:	0043      	lsls	r3, r0, #1
     602:	0049      	lsls	r1, r1, #1
     604:	881a      	ldrh	r2, [r3, #0]
     606:	1e98      	subs	r0, r3, #2
     608:	3302      	adds	r3, #2
     60a:	8002      	strh	r2, [r0, #0]
     60c:	428b      	cmp	r3, r1
     60e:	d1f9      	bne.n	604 <hrt_CyclePalette+0x38>
     610:	e7e1      	b.n	5d6 <hrt_CyclePalette+0xa>
     612:	22a0      	movs	r2, #160	; 0xa0
     614:	04d2      	lsls	r2, r2, #19
     616:	4694      	mov	ip, r2
     618:	4a0d      	ldr	r2, [pc, #52]	; (650 <hrt_CyclePalette+0x84>)
     61a:	004b      	lsls	r3, r1, #1
     61c:	8812      	ldrh	r2, [r2, #0]
     61e:	4463      	add	r3, ip
     620:	801a      	strh	r2, [r3, #0]
     622:	2900      	cmp	r1, #0
     624:	ddd7      	ble.n	5d6 <hrt_CyclePalette+0xa>
     626:	4b0b      	ldr	r3, [pc, #44]	; (654 <hrt_CyclePalette+0x88>)
     628:	469c      	mov	ip, r3
     62a:	4460      	add	r0, ip
     62c:	1809      	adds	r1, r1, r0
     62e:	0043      	lsls	r3, r0, #1
     630:	0049      	lsls	r1, r1, #1
     632:	881a      	ldrh	r2, [r3, #0]
     634:	1e9c      	subs	r4, r3, #2
     636:	3302      	adds	r3, #2
     638:	8022      	strh	r2, [r4, #0]
     63a:	4299      	cmp	r1, r3
     63c:	d1f9      	bne.n	632 <hrt_CyclePalette+0x66>
     63e:	e7ca      	b.n	5d6 <hrt_CyclePalette+0xa>
     640:	00000000 	andeq	r0, r0, r0
     644:	05000200 	streq	r0, [r0, #-512]	; 0xfffffe00
     648:	05000202 	streq	r0, [r0, #-514]	; 0xfffffdfe
     64c:	02800101 	addeq	r0, r0, #1073741824	; 0x40000000
     650:	05000002 	streq	r0, [r0, #-2]
     654:	02800001 	addeq	r0, r0, #1

00000658 <hrt_InvertPalette>:
     658:	4b26      	ldr	r3, [pc, #152]	; (6f4 <hrt_InvertPalette+0x9c>)
     65a:	781b      	ldrb	r3, [r3, #0]
     65c:	b510      	push	{r4, lr}
     65e:	2b01      	cmp	r3, #1
     660:	d002      	beq.n	668 <hrt_InvertPalette+0x10>
     662:	bc10      	pop	{r4}
     664:	bc01      	pop	{r0}
     666:	4700      	bx	r0
     668:	2a00      	cmp	r2, #0
     66a:	d121      	bne.n	6b0 <hrt_InvertPalette+0x58>
     66c:	2900      	cmp	r1, #0
     66e:	ddf8      	ble.n	662 <hrt_InvertPalette+0xa>
     670:	23a0      	movs	r3, #160	; 0xa0
     672:	049b      	lsls	r3, r3, #18
     674:	469c      	mov	ip, r3
     676:	4460      	add	r0, ip
     678:	1809      	adds	r1, r1, r0
     67a:	0044      	lsls	r4, r0, #1
     67c:	0049      	lsls	r1, r1, #1
     67e:	8823      	ldrh	r3, [r4, #0]
     680:	041b      	lsls	r3, r3, #16
     682:	0e9a      	lsrs	r2, r3, #26
     684:	0d58      	lsrs	r0, r3, #21
     686:	00d2      	lsls	r2, r2, #3
     688:	00c0      	lsls	r0, r0, #3
     68a:	43d2      	mvns	r2, r2
     68c:	43c0      	mvns	r0, r0
     68e:	0b5b      	lsrs	r3, r3, #13
     690:	43db      	mvns	r3, r3
     692:	0612      	lsls	r2, r2, #24
     694:	0600      	lsls	r0, r0, #24
     696:	0b92      	lsrs	r2, r2, #14
     698:	0cc0      	lsrs	r0, r0, #19
     69a:	061b      	lsls	r3, r3, #24
     69c:	4302      	orrs	r2, r0
     69e:	0e1b      	lsrs	r3, r3, #24
     6a0:	4313      	orrs	r3, r2
     6a2:	041b      	lsls	r3, r3, #16
     6a4:	0c1b      	lsrs	r3, r3, #16
     6a6:	8023      	strh	r3, [r4, #0]
     6a8:	3402      	adds	r4, #2
     6aa:	42a1      	cmp	r1, r4
     6ac:	d1e7      	bne.n	67e <hrt_InvertPalette+0x26>
     6ae:	e7d8      	b.n	662 <hrt_InvertPalette+0xa>
     6b0:	2a01      	cmp	r2, #1
     6b2:	d1d6      	bne.n	662 <hrt_InvertPalette+0xa>
     6b4:	4b10      	ldr	r3, [pc, #64]	; (6f8 <hrt_InvertPalette+0xa0>)
     6b6:	469c      	mov	ip, r3
     6b8:	2380      	movs	r3, #128	; 0x80
     6ba:	4460      	add	r0, ip
     6bc:	0040      	lsls	r0, r0, #1
     6be:	009b      	lsls	r3, r3, #2
     6c0:	18c1      	adds	r1, r0, r3
     6c2:	8803      	ldrh	r3, [r0, #0]
     6c4:	041b      	lsls	r3, r3, #16
     6c6:	0d5a      	lsrs	r2, r3, #21
     6c8:	0e9c      	lsrs	r4, r3, #26
     6ca:	00d2      	lsls	r2, r2, #3
     6cc:	00e4      	lsls	r4, r4, #3
     6ce:	43d2      	mvns	r2, r2
     6d0:	43e4      	mvns	r4, r4
     6d2:	0b5b      	lsrs	r3, r3, #13
     6d4:	43db      	mvns	r3, r3
     6d6:	0612      	lsls	r2, r2, #24
     6d8:	0624      	lsls	r4, r4, #24
     6da:	0cd2      	lsrs	r2, r2, #19
     6dc:	0ba4      	lsrs	r4, r4, #14
     6de:	061b      	lsls	r3, r3, #24
     6e0:	4322      	orrs	r2, r4
     6e2:	0e1b      	lsrs	r3, r3, #24
     6e4:	4313      	orrs	r3, r2
     6e6:	041b      	lsls	r3, r3, #16
     6e8:	0c1b      	lsrs	r3, r3, #16
     6ea:	8003      	strh	r3, [r0, #0]
     6ec:	3002      	adds	r0, #2
     6ee:	4288      	cmp	r0, r1
     6f0:	d1e7      	bne.n	6c2 <hrt_InvertPalette+0x6a>
     6f2:	e7b6      	b.n	662 <hrt_InvertPalette+0xa>
     6f4:	00000000 	andeq	r0, r0, r0
     6f8:	02800100 	addeq	r0, r0, #0, 2

000006fc <hrt_DrawRectangle>:
     6fc:	b5f0      	push	{r4, r5, r6, r7, lr}
     6fe:	46de      	mov	lr, fp
     700:	4657      	mov	r7, sl
     702:	464e      	mov	r6, r9
     704:	4645      	mov	r5, r8
     706:	b5e0      	push	{r5, r6, r7, lr}
     708:	b087      	sub	sp, #28
     70a:	468c      	mov	ip, r1
     70c:	a910      	add	r1, sp, #64	; 0x40
     70e:	880c      	ldrh	r4, [r1, #0]
     710:	4982      	ldr	r1, [pc, #520]	; (91c <hrt_DrawRectangle+0x220>)
     712:	7809      	ldrb	r1, [r1, #0]
     714:	2901      	cmp	r1, #1
     716:	d008      	beq.n	72a <hrt_DrawRectangle+0x2e>
     718:	b007      	add	sp, #28
     71a:	bc3c      	pop	{r2, r3, r4, r5}
     71c:	4690      	mov	r8, r2
     71e:	4699      	mov	r9, r3
     720:	46a2      	mov	sl, r4
     722:	46ab      	mov	fp, r5
     724:	bcf0      	pop	{r4, r5, r6, r7}
     726:	bc01      	pop	{r0}
     728:	4700      	bx	r0
     72a:	2b00      	cmp	r3, #0
     72c:	ddf4      	ble.n	718 <hrt_DrawRectangle+0x1c>
     72e:	497c      	ldr	r1, [pc, #496]	; (920 <hrt_DrawRectangle+0x224>)
     730:	6809      	ldr	r1, [r1, #0]
     732:	4689      	mov	r9, r1
     734:	4661      	mov	r1, ip
     736:	4665      	mov	r5, ip
     738:	181b      	adds	r3, r3, r0
     73a:	0109      	lsls	r1, r1, #4
     73c:	9300      	str	r3, [sp, #0]
     73e:	1e53      	subs	r3, r2, #1
     740:	1b49      	subs	r1, r1, r5
     742:	9301      	str	r3, [sp, #4]
     744:	0893      	lsrs	r3, r2, #2
     746:	010e      	lsls	r6, r1, #4
     748:	011f      	lsls	r7, r3, #4
     74a:	00c9      	lsls	r1, r1, #3
     74c:	1aff      	subs	r7, r7, r3
     74e:	1809      	adds	r1, r1, r0
     750:	01fb      	lsls	r3, r7, #7
     752:	31f0      	adds	r1, #240	; 0xf0
     754:	004d      	lsls	r5, r1, #1
     756:	4698      	mov	r8, r3
     758:	0011      	movs	r1, r2
     75a:	2303      	movs	r3, #3
     75c:	1836      	adds	r6, r6, r0
     75e:	36e1      	adds	r6, #225	; 0xe1
     760:	36ff      	adds	r6, #255	; 0xff
     762:	0076      	lsls	r6, r6, #1
     764:	4399      	bics	r1, r3
     766:	01bf      	lsls	r7, r7, #6
     768:	444e      	add	r6, r9
     76a:	444d      	add	r5, r9
     76c:	9103      	str	r1, [sp, #12]
     76e:	9702      	str	r7, [sp, #8]
     770:	e00a      	b.n	788 <hrt_DrawRectangle+0x8c>
     772:	2b04      	cmp	r3, #4
     774:	d05c      	beq.n	830 <hrt_DrawRectangle+0x134>
     776:	2b05      	cmp	r3, #5
     778:	d100      	bne.n	77c <hrt_DrawRectangle+0x80>
     77a:	e0a9      	b.n	8d0 <hrt_DrawRectangle+0x1d4>
     77c:	9b00      	ldr	r3, [sp, #0]
     77e:	3001      	adds	r0, #1
     780:	3602      	adds	r6, #2
     782:	3502      	adds	r5, #2
     784:	4298      	cmp	r0, r3
     786:	d0c7      	beq.n	718 <hrt_DrawRectangle+0x1c>
     788:	2a00      	cmp	r2, #0
     78a:	ddf7      	ble.n	77c <hrt_DrawRectangle+0x80>
     78c:	9b11      	ldr	r3, [sp, #68]	; 0x44
     78e:	2b03      	cmp	r3, #3
     790:	d1ef      	bne.n	772 <hrt_DrawRectangle+0x76>
     792:	9b01      	ldr	r3, [sp, #4]
     794:	2b02      	cmp	r3, #2
     796:	d800      	bhi.n	79a <hrt_DrawRectangle+0x9e>
     798:	e0be      	b.n	918 <hrt_DrawRectangle+0x21c>
     79a:	4962      	ldr	r1, [pc, #392]	; (924 <hrt_DrawRectangle+0x228>)
     79c:	468a      	mov	sl, r1
     79e:	0031      	movs	r1, r6
     7a0:	4667      	mov	r7, ip
     7a2:	4b61      	ldr	r3, [pc, #388]	; (928 <hrt_DrawRectangle+0x22c>)
     7a4:	31e1      	adds	r1, #225	; 0xe1
     7a6:	469b      	mov	fp, r3
     7a8:	44b2      	add	sl, r6
     7aa:	31ff      	adds	r1, #255	; 0xff
     7ac:	468c      	mov	ip, r1
     7ae:	9704      	str	r7, [sp, #16]
     7b0:	4657      	mov	r7, sl
     7b2:	44b3      	add	fp, r6
     7b4:	4659      	mov	r1, fp
     7b6:	46aa      	mov	sl, r5
     7b8:	4693      	mov	fp, r2
     7ba:	2300      	movs	r3, #0
     7bc:	4642      	mov	r2, r8
     7be:	003d      	movs	r5, r7
     7c0:	4680      	mov	r8, r0
     7c2:	4660      	mov	r0, ip
     7c4:	27f0      	movs	r7, #240	; 0xf0
     7c6:	00ff      	lsls	r7, r7, #3
     7c8:	46bc      	mov	ip, r7
     7ca:	52cc      	strh	r4, [r1, r3]
     7cc:	52ec      	strh	r4, [r5, r3]
     7ce:	52f4      	strh	r4, [r6, r3]
     7d0:	52c4      	strh	r4, [r0, r3]
     7d2:	4463      	add	r3, ip
     7d4:	429a      	cmp	r2, r3
     7d6:	d1f5      	bne.n	7c4 <hrt_DrawRectangle+0xc8>
     7d8:	4640      	mov	r0, r8
     7da:	4690      	mov	r8, r2
     7dc:	465a      	mov	r2, fp
     7de:	9b04      	ldr	r3, [sp, #16]
     7e0:	9903      	ldr	r1, [sp, #12]
     7e2:	4655      	mov	r5, sl
     7e4:	469c      	mov	ip, r3
     7e6:	428a      	cmp	r2, r1
     7e8:	d0c8      	beq.n	77c <hrt_DrawRectangle+0x80>
     7ea:	468a      	mov	sl, r1
     7ec:	44e2      	add	sl, ip
     7ee:	4653      	mov	r3, sl
     7f0:	4657      	mov	r7, sl
     7f2:	011b      	lsls	r3, r3, #4
     7f4:	1bdb      	subs	r3, r3, r7
     7f6:	464f      	mov	r7, r9
     7f8:	011b      	lsls	r3, r3, #4
     7fa:	181b      	adds	r3, r3, r0
     7fc:	005b      	lsls	r3, r3, #1
     7fe:	53dc      	strh	r4, [r3, r7]
     800:	1c4b      	adds	r3, r1, #1
     802:	429a      	cmp	r2, r3
     804:	ddba      	ble.n	77c <hrt_DrawRectangle+0x80>
     806:	4463      	add	r3, ip
     808:	469a      	mov	sl, r3
     80a:	4657      	mov	r7, sl
     80c:	011b      	lsls	r3, r3, #4
     80e:	1bdb      	subs	r3, r3, r7
     810:	464f      	mov	r7, r9
     812:	011b      	lsls	r3, r3, #4
     814:	181b      	adds	r3, r3, r0
     816:	005b      	lsls	r3, r3, #1
     818:	3102      	adds	r1, #2
     81a:	53dc      	strh	r4, [r3, r7]
     81c:	428a      	cmp	r2, r1
     81e:	ddad      	ble.n	77c <hrt_DrawRectangle+0x80>
     820:	4461      	add	r1, ip
     822:	010b      	lsls	r3, r1, #4
     824:	1a5b      	subs	r3, r3, r1
     826:	011b      	lsls	r3, r3, #4
     828:	181b      	adds	r3, r3, r0
     82a:	005b      	lsls	r3, r3, #1
     82c:	53dc      	strh	r4, [r3, r7]
     82e:	e7a5      	b.n	77c <hrt_DrawRectangle+0x80>
     830:	9b01      	ldr	r3, [sp, #4]
     832:	2b02      	cmp	r3, #2
     834:	d96e      	bls.n	914 <hrt_DrawRectangle+0x218>
     836:	21f0      	movs	r1, #240	; 0xf0
     838:	4249      	negs	r1, r1
     83a:	468a      	mov	sl, r1
     83c:	0029      	movs	r1, r5
     83e:	9604      	str	r6, [sp, #16]
     840:	4666      	mov	r6, ip
     842:	4b38      	ldr	r3, [pc, #224]	; (924 <hrt_DrawRectangle+0x228>)
     844:	31f0      	adds	r1, #240	; 0xf0
     846:	469b      	mov	fp, r3
     848:	9605      	str	r6, [sp, #20]
     84a:	000e      	movs	r6, r1
     84c:	44ab      	add	fp, r5
     84e:	44aa      	add	sl, r5
     850:	4659      	mov	r1, fp
     852:	2300      	movs	r3, #0
     854:	4693      	mov	fp, r2
     856:	4652      	mov	r2, sl
     858:	4682      	mov	sl, r0
     85a:	0030      	movs	r0, r6
     85c:	9f02      	ldr	r7, [sp, #8]
     85e:	26f0      	movs	r6, #240	; 0xf0
     860:	00b6      	lsls	r6, r6, #2
     862:	46b4      	mov	ip, r6
     864:	52cc      	strh	r4, [r1, r3]
     866:	52d4      	strh	r4, [r2, r3]
     868:	52ec      	strh	r4, [r5, r3]
     86a:	52c4      	strh	r4, [r0, r3]
     86c:	4463      	add	r3, ip
     86e:	42bb      	cmp	r3, r7
     870:	d1f5      	bne.n	85e <hrt_DrawRectangle+0x162>
     872:	465a      	mov	r2, fp
     874:	9b05      	ldr	r3, [sp, #20]
     876:	9903      	ldr	r1, [sp, #12]
     878:	4650      	mov	r0, sl
     87a:	9e04      	ldr	r6, [sp, #16]
     87c:	469c      	mov	ip, r3
     87e:	9702      	str	r7, [sp, #8]
     880:	428a      	cmp	r2, r1
     882:	d100      	bne.n	886 <hrt_DrawRectangle+0x18a>
     884:	e77a      	b.n	77c <hrt_DrawRectangle+0x80>
     886:	468a      	mov	sl, r1
     888:	44e2      	add	sl, ip
     88a:	4653      	mov	r3, sl
     88c:	4657      	mov	r7, sl
     88e:	011b      	lsls	r3, r3, #4
     890:	1bdb      	subs	r3, r3, r7
     892:	464f      	mov	r7, r9
     894:	00db      	lsls	r3, r3, #3
     896:	181b      	adds	r3, r3, r0
     898:	005b      	lsls	r3, r3, #1
     89a:	53dc      	strh	r4, [r3, r7]
     89c:	1c4b      	adds	r3, r1, #1
     89e:	429a      	cmp	r2, r3
     8a0:	dc00      	bgt.n	8a4 <hrt_DrawRectangle+0x1a8>
     8a2:	e76b      	b.n	77c <hrt_DrawRectangle+0x80>
     8a4:	4463      	add	r3, ip
     8a6:	469a      	mov	sl, r3
     8a8:	4657      	mov	r7, sl
     8aa:	011b      	lsls	r3, r3, #4
     8ac:	1bdb      	subs	r3, r3, r7
     8ae:	464f      	mov	r7, r9
     8b0:	00db      	lsls	r3, r3, #3
     8b2:	181b      	adds	r3, r3, r0
     8b4:	005b      	lsls	r3, r3, #1
     8b6:	3102      	adds	r1, #2
     8b8:	53dc      	strh	r4, [r3, r7]
     8ba:	428a      	cmp	r2, r1
     8bc:	dc00      	bgt.n	8c0 <hrt_DrawRectangle+0x1c4>
     8be:	e75d      	b.n	77c <hrt_DrawRectangle+0x80>
     8c0:	4461      	add	r1, ip
     8c2:	010b      	lsls	r3, r1, #4
     8c4:	1a5b      	subs	r3, r3, r1
     8c6:	00db      	lsls	r3, r3, #3
     8c8:	181b      	adds	r3, r3, r0
     8ca:	005b      	lsls	r3, r3, #1
     8cc:	53dc      	strh	r4, [r3, r7]
     8ce:	e755      	b.n	77c <hrt_DrawRectangle+0x80>
     8d0:	9b01      	ldr	r3, [sp, #4]
     8d2:	2b02      	cmp	r3, #2
     8d4:	d91e      	bls.n	914 <hrt_DrawRectangle+0x218>
     8d6:	21f0      	movs	r1, #240	; 0xf0
     8d8:	4249      	negs	r1, r1
     8da:	468a      	mov	sl, r1
     8dc:	0029      	movs	r1, r5
     8de:	9604      	str	r6, [sp, #16]
     8e0:	4666      	mov	r6, ip
     8e2:	4b10      	ldr	r3, [pc, #64]	; (924 <hrt_DrawRectangle+0x228>)
     8e4:	31f0      	adds	r1, #240	; 0xf0
     8e6:	469b      	mov	fp, r3
     8e8:	9605      	str	r6, [sp, #20]
     8ea:	000e      	movs	r6, r1
     8ec:	44ab      	add	fp, r5
     8ee:	44aa      	add	sl, r5
     8f0:	4659      	mov	r1, fp
     8f2:	2300      	movs	r3, #0
     8f4:	4693      	mov	fp, r2
     8f6:	4652      	mov	r2, sl
     8f8:	4682      	mov	sl, r0
     8fa:	0030      	movs	r0, r6
     8fc:	9f02      	ldr	r7, [sp, #8]
     8fe:	26f0      	movs	r6, #240	; 0xf0
     900:	00b6      	lsls	r6, r6, #2
     902:	46b4      	mov	ip, r6
     904:	52cc      	strh	r4, [r1, r3]
     906:	52d4      	strh	r4, [r2, r3]
     908:	52ec      	strh	r4, [r5, r3]
     90a:	52c4      	strh	r4, [r0, r3]
     90c:	4463      	add	r3, ip
     90e:	42bb      	cmp	r3, r7
     910:	d1f5      	bne.n	8fe <hrt_DrawRectangle+0x202>
     912:	e7ae      	b.n	872 <hrt_DrawRectangle+0x176>
     914:	2100      	movs	r1, #0
     916:	e7b6      	b.n	886 <hrt_DrawRectangle+0x18a>
     918:	2100      	movs	r1, #0
     91a:	e766      	b.n	7ea <hrt_DrawRectangle+0xee>
	...
     924:	fffffe20 			; <UNDEFINED> instruction: 0xfffffe20
     928:	fffffc40 			; <UNDEFINED> instruction: 0xfffffc40

0000092c <hrt_FillScreen>:
     92c:	4b13      	ldr	r3, [pc, #76]	; (97c <hrt_FillScreen+0x50>)
     92e:	781a      	ldrb	r2, [r3, #0]
     930:	b570      	push	{r4, r5, r6, lr}
     932:	2a01      	cmp	r2, #1
     934:	d002      	beq.n	93c <hrt_FillScreen+0x10>
     936:	bc70      	pop	{r4, r5, r6}
     938:	bc01      	pop	{r0}
     93a:	4700      	bx	r0
     93c:	4b10      	ldr	r3, [pc, #64]	; (980 <hrt_FillScreen+0x54>)
     93e:	6819      	ldr	r1, [r3, #0]
     940:	084b      	lsrs	r3, r1, #1
     942:	425b      	negs	r3, r3
     944:	401a      	ands	r2, r3
     946:	d017      	beq.n	978 <hrt_FillScreen+0x4c>
     948:	2301      	movs	r3, #1
     94a:	8008      	strh	r0, [r1, #0]
     94c:	2696      	movs	r6, #150	; 0x96
     94e:	0236      	lsls	r6, r6, #8
     950:	1ab6      	subs	r6, r6, r2
     952:	0874      	lsrs	r4, r6, #1
     954:	0052      	lsls	r2, r2, #1
     956:	0405      	lsls	r5, r0, #16
     958:	188a      	adds	r2, r1, r2
     95a:	00a4      	lsls	r4, r4, #2
     95c:	4305      	orrs	r5, r0
     95e:	18a4      	adds	r4, r4, r2
     960:	c220      	stmia	r2!, {r5}
     962:	4294      	cmp	r4, r2
     964:	d1fc      	bne.n	960 <hrt_FillScreen+0x34>
     966:	2201      	movs	r2, #1
     968:	0034      	movs	r4, r6
     96a:	4394      	bics	r4, r2
     96c:	18e3      	adds	r3, r4, r3
     96e:	42a6      	cmp	r6, r4
     970:	d0e1      	beq.n	936 <hrt_FillScreen+0xa>
     972:	005b      	lsls	r3, r3, #1
     974:	5258      	strh	r0, [r3, r1]
     976:	e7de      	b.n	936 <hrt_FillScreen+0xa>
     978:	2300      	movs	r3, #0
     97a:	e7e7      	b.n	94c <hrt_FillScreen+0x20>
	...

00000984 <hrt_DrawLine>:
     984:	b5f0      	push	{r4, r5, r6, r7, lr}
     986:	464e      	mov	r6, r9
     988:	46de      	mov	lr, fp
     98a:	4657      	mov	r7, sl
     98c:	4645      	mov	r5, r8
     98e:	b5e0      	push	{r5, r6, r7, lr}
     990:	b085      	sub	sp, #20
     992:	ac0e      	add	r4, sp, #56	; 0x38
     994:	8826      	ldrh	r6, [r4, #0]
     996:	4c60      	ldr	r4, [pc, #384]	; (b18 <hrt_DrawLine+0x194>)
     998:	7824      	ldrb	r4, [r4, #0]
     99a:	2c01      	cmp	r4, #1
     99c:	d008      	beq.n	9b0 <hrt_DrawLine+0x2c>
     99e:	b005      	add	sp, #20
     9a0:	bc3c      	pop	{r2, r3, r4, r5}
     9a2:	4690      	mov	r8, r2
     9a4:	4699      	mov	r9, r3
     9a6:	46a2      	mov	sl, r4
     9a8:	46ab      	mov	fp, r5
     9aa:	bcf0      	pop	{r4, r5, r6, r7}
     9ac:	bc01      	pop	{r0}
     9ae:	4700      	bx	r0
     9b0:	1a15      	subs	r5, r2, r0
     9b2:	17ec      	asrs	r4, r5, #31
     9b4:	192d      	adds	r5, r5, r4
     9b6:	4065      	eors	r5, r4
     9b8:	1a5c      	subs	r4, r3, r1
     9ba:	17e7      	asrs	r7, r4, #31
     9bc:	19e4      	adds	r4, r4, r7
     9be:	407c      	eors	r4, r7
     9c0:	46a4      	mov	ip, r4
     9c2:	42a5      	cmp	r5, r4
     9c4:	da49      	bge.n	a5a <hrt_DrawLine+0xd6>
     9c6:	3401      	adds	r4, #1
     9c8:	4667      	mov	r7, ip
     9ca:	9402      	str	r4, [sp, #8]
     9cc:	006c      	lsls	r4, r5, #1
     9ce:	46a0      	mov	r8, r4
     9d0:	1be4      	subs	r4, r4, r7
     9d2:	9403      	str	r4, [sp, #12]
     9d4:	4644      	mov	r4, r8
     9d6:	9401      	str	r4, [sp, #4]
     9d8:	2401      	movs	r4, #1
     9da:	4264      	negs	r4, r4
     9dc:	46a2      	mov	sl, r4
     9de:	2400      	movs	r4, #0
     9e0:	46a3      	mov	fp, r4
     9e2:	3401      	adds	r4, #1
     9e4:	46a4      	mov	ip, r4
     9e6:	2400      	movs	r4, #0
     9e8:	1bed      	subs	r5, r5, r7
     9ea:	006d      	lsls	r5, r5, #1
     9ec:	46a0      	mov	r8, r4
     9ee:	4282      	cmp	r2, r0
     9f0:	db49      	blt.n	a86 <hrt_DrawLine+0x102>
     9f2:	2201      	movs	r2, #1
     9f4:	46c3      	mov	fp, r8
     9f6:	4690      	mov	r8, r2
     9f8:	428b      	cmp	r3, r1
     9fa:	db49      	blt.n	a90 <hrt_DrawLine+0x10c>
     9fc:	2301      	movs	r3, #1
     9fe:	46e2      	mov	sl, ip
     a00:	4699      	mov	r9, r3
     a02:	9b02      	ldr	r3, [sp, #8]
     a04:	2b01      	cmp	r3, #1
     a06:	d0ca      	beq.n	99e <hrt_DrawLine+0x1a>
     a08:	4b44      	ldr	r3, [pc, #272]	; (b1c <hrt_DrawLine+0x198>)
     a0a:	681b      	ldr	r3, [r3, #0]
     a0c:	469c      	mov	ip, r3
     a0e:	9b0f      	ldr	r3, [sp, #60]	; 0x3c
     a10:	2b03      	cmp	r3, #3
     a12:	d041      	beq.n	a98 <hrt_DrawLine+0x114>
     a14:	2b04      	cmp	r3, #4
     a16:	d05f      	beq.n	ad8 <hrt_DrawLine+0x154>
     a18:	2b05      	cmp	r3, #5
     a1a:	d1c0      	bne.n	99e <hrt_DrawLine+0x1a>
     a1c:	4653      	mov	r3, sl
     a1e:	9f02      	ldr	r7, [sp, #8]
     a20:	9302      	str	r3, [sp, #8]
     a22:	4663      	mov	r3, ip
     a24:	2201      	movs	r2, #1
     a26:	46ac      	mov	ip, r5
     a28:	9c03      	ldr	r4, [sp, #12]
     a2a:	001d      	movs	r5, r3
     a2c:	e005      	b.n	a3a <hrt_DrawLine+0xb6>
     a2e:	4464      	add	r4, ip
     a30:	4440      	add	r0, r8
     a32:	4449      	add	r1, r9
     a34:	3201      	adds	r2, #1
     a36:	4297      	cmp	r7, r2
     a38:	d0b1      	beq.n	99e <hrt_DrawLine+0x1a>
     a3a:	010b      	lsls	r3, r1, #4
     a3c:	1a5b      	subs	r3, r3, r1
     a3e:	00db      	lsls	r3, r3, #3
     a40:	181b      	adds	r3, r3, r0
     a42:	005b      	lsls	r3, r3, #1
     a44:	535e      	strh	r6, [r3, r5]
     a46:	2c00      	cmp	r4, #0
     a48:	daf1      	bge.n	a2e <hrt_DrawLine+0xaa>
     a4a:	9b01      	ldr	r3, [sp, #4]
     a4c:	469a      	mov	sl, r3
     a4e:	9b02      	ldr	r3, [sp, #8]
     a50:	4454      	add	r4, sl
     a52:	469a      	mov	sl, r3
     a54:	4458      	add	r0, fp
     a56:	4451      	add	r1, sl
     a58:	e7ec      	b.n	a34 <hrt_DrawLine+0xb0>
     a5a:	1c6c      	adds	r4, r5, #1
     a5c:	9402      	str	r4, [sp, #8]
     a5e:	4664      	mov	r4, ip
     a60:	0064      	lsls	r4, r4, #1
     a62:	46a0      	mov	r8, r4
     a64:	1b64      	subs	r4, r4, r5
     a66:	9403      	str	r4, [sp, #12]
     a68:	4644      	mov	r4, r8
     a6a:	9401      	str	r4, [sp, #4]
     a6c:	4664      	mov	r4, ip
     a6e:	1b65      	subs	r5, r4, r5
     a70:	2400      	movs	r4, #0
     a72:	46a2      	mov	sl, r4
     a74:	3c01      	subs	r4, #1
     a76:	46a3      	mov	fp, r4
     a78:	2400      	movs	r4, #0
     a7a:	46a4      	mov	ip, r4
     a7c:	3401      	adds	r4, #1
     a7e:	006d      	lsls	r5, r5, #1
     a80:	46a0      	mov	r8, r4
     a82:	4282      	cmp	r2, r0
     a84:	dab5      	bge.n	9f2 <hrt_DrawLine+0x6e>
     a86:	2201      	movs	r2, #1
     a88:	4252      	negs	r2, r2
     a8a:	4690      	mov	r8, r2
     a8c:	428b      	cmp	r3, r1
     a8e:	dab5      	bge.n	9fc <hrt_DrawLine+0x78>
     a90:	2301      	movs	r3, #1
     a92:	425b      	negs	r3, r3
     a94:	4699      	mov	r9, r3
     a96:	e7b4      	b.n	a02 <hrt_DrawLine+0x7e>
     a98:	4653      	mov	r3, sl
     a9a:	9f02      	ldr	r7, [sp, #8]
     a9c:	9302      	str	r3, [sp, #8]
     a9e:	4663      	mov	r3, ip
     aa0:	2201      	movs	r2, #1
     aa2:	46ac      	mov	ip, r5
     aa4:	9c03      	ldr	r4, [sp, #12]
     aa6:	001d      	movs	r5, r3
     aa8:	e006      	b.n	ab8 <hrt_DrawLine+0x134>
     aaa:	4464      	add	r4, ip
     aac:	4440      	add	r0, r8
     aae:	4449      	add	r1, r9
     ab0:	3201      	adds	r2, #1
     ab2:	4297      	cmp	r7, r2
     ab4:	d100      	bne.n	ab8 <hrt_DrawLine+0x134>
     ab6:	e772      	b.n	99e <hrt_DrawLine+0x1a>
     ab8:	010b      	lsls	r3, r1, #4
     aba:	1a5b      	subs	r3, r3, r1
     abc:	011b      	lsls	r3, r3, #4
     abe:	181b      	adds	r3, r3, r0
     ac0:	005b      	lsls	r3, r3, #1
     ac2:	535e      	strh	r6, [r3, r5]
     ac4:	2c00      	cmp	r4, #0
     ac6:	daf0      	bge.n	aaa <hrt_DrawLine+0x126>
     ac8:	9b01      	ldr	r3, [sp, #4]
     aca:	469a      	mov	sl, r3
     acc:	9b02      	ldr	r3, [sp, #8]
     ace:	4454      	add	r4, sl
     ad0:	469a      	mov	sl, r3
     ad2:	4458      	add	r0, fp
     ad4:	4451      	add	r1, sl
     ad6:	e7eb      	b.n	ab0 <hrt_DrawLine+0x12c>
     ad8:	4653      	mov	r3, sl
     ada:	9f02      	ldr	r7, [sp, #8]
     adc:	9302      	str	r3, [sp, #8]
     ade:	4663      	mov	r3, ip
     ae0:	2201      	movs	r2, #1
     ae2:	46ac      	mov	ip, r5
     ae4:	9c03      	ldr	r4, [sp, #12]
     ae6:	001d      	movs	r5, r3
     ae8:	e006      	b.n	af8 <hrt_DrawLine+0x174>
     aea:	4464      	add	r4, ip
     aec:	4440      	add	r0, r8
     aee:	4449      	add	r1, r9
     af0:	3201      	adds	r2, #1
     af2:	4297      	cmp	r7, r2
     af4:	d100      	bne.n	af8 <hrt_DrawLine+0x174>
     af6:	e752      	b.n	99e <hrt_DrawLine+0x1a>
     af8:	010b      	lsls	r3, r1, #4
     afa:	1a5b      	subs	r3, r3, r1
     afc:	00db      	lsls	r3, r3, #3
     afe:	181b      	adds	r3, r3, r0
     b00:	005b      	lsls	r3, r3, #1
     b02:	535e      	strh	r6, [r3, r5]
     b04:	2c00      	cmp	r4, #0
     b06:	daf0      	bge.n	aea <hrt_DrawLine+0x166>
     b08:	9b01      	ldr	r3, [sp, #4]
     b0a:	469a      	mov	sl, r3
     b0c:	9b02      	ldr	r3, [sp, #8]
     b0e:	4454      	add	r4, sl
     b10:	469a      	mov	sl, r3
     b12:	4458      	add	r0, fp
     b14:	4451      	add	r1, sl
     b16:	e7eb      	b.n	af0 <hrt_DrawLine+0x16c>
	...

00000b20 <hrt_DrawCircle>:
     b20:	b510      	push	{r4, lr}
     b22:	4c06      	ldr	r4, [pc, #24]	; (b3c <hrt_DrawCircle+0x1c>)
     b24:	7824      	ldrb	r4, [r4, #0]
     b26:	b082      	sub	sp, #8
     b28:	2c01      	cmp	r4, #1
     b2a:	d103      	bne.n	b34 <hrt_DrawCircle+0x14>
     b2c:	9c04      	ldr	r4, [sp, #16]
     b2e:	9400      	str	r4, [sp, #0]
     b30:	f7ff fa66 	bl	0 <hrt_DrawCircle.part.2>
     b34:	b002      	add	sp, #8
     b36:	bc10      	pop	{r4}
     b38:	bc01      	pop	{r0}
     b3a:	4700      	bx	r0
     b3c:	00000000 	andeq	r0, r0, r0

00000b40 <hrt_ScanLines>:
     b40:	b5f0      	push	{r4, r5, r6, r7, lr}
     b42:	4657      	mov	r7, sl
     b44:	464e      	mov	r6, r9
     b46:	4645      	mov	r5, r8
     b48:	46de      	mov	lr, fp
     b4a:	b5e0      	push	{r5, r6, r7, lr}
     b4c:	4b2d      	ldr	r3, [pc, #180]	; (c04 <hrt_ScanLines+0xc4>)
     b4e:	781f      	ldrb	r7, [r3, #0]
     b50:	b083      	sub	sp, #12
     b52:	0004      	movs	r4, r0
     b54:	9101      	str	r1, [sp, #4]
     b56:	0015      	movs	r5, r2
     b58:	4699      	mov	r9, r3
     b5a:	2f01      	cmp	r7, #1
     b5c:	d008      	beq.n	b70 <hrt_ScanLines+0x30>
     b5e:	b003      	add	sp, #12
     b60:	bc3c      	pop	{r2, r3, r4, r5}
     b62:	4690      	mov	r8, r2
     b64:	4699      	mov	r9, r3
     b66:	46a2      	mov	sl, r4
     b68:	46ab      	mov	fp, r5
     b6a:	bcf0      	pop	{r4, r5, r6, r7}
     b6c:	bc01      	pop	{r0}
     b6e:	4700      	bx	r0
     b70:	2300      	movs	r3, #0
     b72:	9300      	str	r3, [sp, #0]
     b74:	4b24      	ldr	r3, [pc, #144]	; (c08 <hrt_ScanLines+0xc8>)
     b76:	003e      	movs	r6, r7
     b78:	4698      	mov	r8, r3
     b7a:	9a00      	ldr	r2, [sp, #0]
     b7c:	4643      	mov	r3, r8
     b7e:	2102      	movs	r1, #2
     b80:	681f      	ldr	r7, [r3, #0]
     b82:	4249      	negs	r1, r1
     b84:	18bb      	adds	r3, r7, r2
     b86:	1ab8      	subs	r0, r7, r2
     b88:	1a8a      	subs	r2, r1, r2
     b8a:	2196      	movs	r1, #150	; 0x96
     b8c:	0249      	lsls	r1, r1, #9
     b8e:	468c      	mov	ip, r1
     b90:	9900      	ldr	r1, [sp, #0]
     b92:	18ba      	adds	r2, r7, r2
     b94:	4467      	add	r7, ip
     b96:	468c      	mov	ip, r1
     b98:	21f0      	movs	r1, #240	; 0xf0
     b9a:	4467      	add	r7, ip
     b9c:	468b      	mov	fp, r1
     b9e:	46aa      	mov	sl, r5
     ba0:	0019      	movs	r1, r3
     ba2:	e00a      	b.n	bba <hrt_ScanLines+0x7a>
     ba4:	25f0      	movs	r5, #240	; 0xf0
     ba6:	00ad      	lsls	r5, r5, #2
     ba8:	46ac      	mov	ip, r5
     baa:	30e1      	adds	r0, #225	; 0xe1
     bac:	31e1      	adds	r1, #225	; 0xe1
     bae:	4463      	add	r3, ip
     bb0:	30ff      	adds	r0, #255	; 0xff
     bb2:	31ff      	adds	r1, #255	; 0xff
     bb4:	4462      	add	r2, ip
     bb6:	429f      	cmp	r7, r3
     bb8:	d015      	beq.n	be6 <hrt_ScanLines+0xa6>
     bba:	2e01      	cmp	r6, #1
     bbc:	d1f2      	bne.n	ba4 <hrt_ScanLines+0x64>
     bbe:	4655      	mov	r5, sl
     bc0:	2d03      	cmp	r5, #3
     bc2:	d00b      	beq.n	bdc <hrt_ScanLines+0x9c>
     bc4:	2d04      	cmp	r5, #4
     bc6:	d001      	beq.n	bcc <hrt_ScanLines+0x8c>
     bc8:	2d05      	cmp	r5, #5
     bca:	d1eb      	bne.n	ba4 <hrt_ScanLines+0x64>
     bcc:	1e85      	subs	r5, r0, #2
     bce:	802c      	strh	r4, [r5, #0]
     bd0:	25f2      	movs	r5, #242	; 0xf2
     bd2:	8004      	strh	r4, [r0, #0]
     bd4:	534c      	strh	r4, [r1, r5]
     bd6:	465d      	mov	r5, fp
     bd8:	534c      	strh	r4, [r1, r5]
     bda:	e7e3      	b.n	ba4 <hrt_ScanLines+0x64>
     bdc:	8014      	strh	r4, [r2, #0]
     bde:	8054      	strh	r4, [r2, #2]
     be0:	805c      	strh	r4, [r3, #2]
     be2:	801c      	strh	r4, [r3, #0]
     be4:	e7de      	b.n	ba4 <hrt_ScanLines+0x64>
     be6:	4b09      	ldr	r3, [pc, #36]	; (c0c <hrt_ScanLines+0xcc>)
     be8:	9801      	ldr	r0, [sp, #4]
     bea:	f001 fabf 	bl	216c <hrt_DSPIsLinearOBJEnabled+0x1c>
     bee:	9b00      	ldr	r3, [sp, #0]
     bf0:	3b04      	subs	r3, #4
     bf2:	001a      	movs	r2, r3
     bf4:	9300      	str	r3, [sp, #0]
     bf6:	4b06      	ldr	r3, [pc, #24]	; (c10 <hrt_ScanLines+0xd0>)
     bf8:	4655      	mov	r5, sl
     bfa:	429a      	cmp	r2, r3
     bfc:	d0af      	beq.n	b5e <hrt_ScanLines+0x1e>
     bfe:	464b      	mov	r3, r9
     c00:	781e      	ldrb	r6, [r3, #0]
     c02:	e7bb      	b.n	b7c <hrt_ScanLines+0x3c>
	...
     c10:	fffffe20 			; <UNDEFINED> instruction: 0xfffffe20

00000c14 <hrt_LeftWipe>:
     c14:	b5f0      	push	{r4, r5, r6, r7, lr}
     c16:	46de      	mov	lr, fp
     c18:	4657      	mov	r7, sl
     c1a:	464e      	mov	r6, r9
     c1c:	4645      	mov	r5, r8
     c1e:	b5e0      	push	{r5, r6, r7, lr}
     c20:	4b44      	ldr	r3, [pc, #272]	; (d34 <hrt_LeftWipe+0x120>)
     c22:	469b      	mov	fp, r3
     c24:	781b      	ldrb	r3, [r3, #0]
     c26:	b083      	sub	sp, #12
     c28:	0004      	movs	r4, r0
     c2a:	468a      	mov	sl, r1
     c2c:	9201      	str	r2, [sp, #4]
     c2e:	2b01      	cmp	r3, #1
     c30:	d008      	beq.n	c44 <hrt_LeftWipe+0x30>
     c32:	b003      	add	sp, #12
     c34:	bc3c      	pop	{r2, r3, r4, r5}
     c36:	4690      	mov	r8, r2
     c38:	4699      	mov	r9, r3
     c3a:	46a2      	mov	sl, r4
     c3c:	46ab      	mov	fp, r5
     c3e:	bcf0      	pop	{r4, r5, r6, r7}
     c40:	bc01      	pop	{r0}
     c42:	4700      	bx	r0
     c44:	2696      	movs	r6, #150	; 0x96
     c46:	4a3c      	ldr	r2, [pc, #240]	; (d38 <hrt_LeftWipe+0x124>)
     c48:	4691      	mov	r9, r2
     c4a:	4a3c      	ldr	r2, [pc, #240]	; (d3c <hrt_LeftWipe+0x128>)
     c4c:	25f0      	movs	r5, #240	; 0xf0
     c4e:	9200      	str	r2, [sp, #0]
     c50:	0236      	lsls	r6, r6, #8
     c52:	e007      	b.n	c64 <hrt_LeftWipe+0x50>
     c54:	4650      	mov	r0, sl
     c56:	3d01      	subs	r5, #1
     c58:	f001 fa8b 	bl	2172 <hrt_DSPIsLinearOBJEnabled+0x22>
     c5c:	2d00      	cmp	r5, #0
     c5e:	d0e8      	beq.n	c32 <hrt_LeftWipe+0x1e>
     c60:	465b      	mov	r3, fp
     c62:	781b      	ldrb	r3, [r3, #0]
     c64:	9a00      	ldr	r2, [sp, #0]
     c66:	6812      	ldr	r2, [r2, #0]
     c68:	2b01      	cmp	r3, #1
     c6a:	d1f3      	bne.n	c54 <hrt_LeftWipe+0x40>
     c6c:	9b01      	ldr	r3, [sp, #4]
     c6e:	2b05      	cmp	r3, #5
     c70:	d041      	beq.n	cf6 <hrt_LeftWipe+0xe2>
     c72:	2b03      	cmp	r3, #3
     c74:	d01f      	beq.n	cb6 <hrt_LeftWipe+0xa2>
     c76:	2b04      	cmp	r3, #4
     c78:	d1ec      	bne.n	c54 <hrt_LeftWipe+0x40>
     c7a:	006b      	lsls	r3, r5, #1
     c7c:	1ad2      	subs	r2, r2, r3
     c7e:	32e1      	adds	r2, #225	; 0xe1
     c80:	32ff      	adds	r2, #255	; 0xff
     c82:	0010      	movs	r0, r2
     c84:	21f0      	movs	r1, #240	; 0xf0
     c86:	30e1      	adds	r0, #225	; 0xe1
     c88:	468c      	mov	ip, r1
     c8a:	30ff      	adds	r0, #255	; 0xff
     c8c:	0007      	movs	r7, r0
     c8e:	4494      	add	ip, r2
     c90:	4660      	mov	r0, ip
     c92:	2300      	movs	r3, #0
     c94:	46ac      	mov	ip, r5
     c96:	003d      	movs	r5, r7
     c98:	31e1      	adds	r1, #225	; 0xe1
     c9a:	31ff      	adds	r1, #255	; 0xff
     c9c:	1851      	adds	r1, r2, r1
     c9e:	27f0      	movs	r7, #240	; 0xf0
     ca0:	00bf      	lsls	r7, r7, #2
     ca2:	46b8      	mov	r8, r7
     ca4:	52d4      	strh	r4, [r2, r3]
     ca6:	52c4      	strh	r4, [r0, r3]
     ca8:	52ec      	strh	r4, [r5, r3]
     caa:	52cc      	strh	r4, [r1, r3]
     cac:	4443      	add	r3, r8
     cae:	42b3      	cmp	r3, r6
     cb0:	d1f5      	bne.n	c9e <hrt_LeftWipe+0x8a>
     cb2:	4665      	mov	r5, ip
     cb4:	e7ce      	b.n	c54 <hrt_LeftWipe+0x40>
     cb6:	21f0      	movs	r1, #240	; 0xf0
     cb8:	006b      	lsls	r3, r5, #1
     cba:	1ad2      	subs	r2, r2, r3
     cbc:	0049      	lsls	r1, r1, #1
     cbe:	32e1      	adds	r2, #225	; 0xe1
     cc0:	32ff      	adds	r2, #255	; 0xff
     cc2:	468c      	mov	ip, r1
     cc4:	1849      	adds	r1, r1, r1
     cc6:	1850      	adds	r0, r2, r1
     cc8:	31e1      	adds	r1, #225	; 0xe1
     cca:	31ff      	adds	r1, #255	; 0xff
     ccc:	1851      	adds	r1, r2, r1
     cce:	000f      	movs	r7, r1
     cd0:	4494      	add	ip, r2
     cd2:	4661      	mov	r1, ip
     cd4:	2300      	movs	r3, #0
     cd6:	46ac      	mov	ip, r5
     cd8:	003d      	movs	r5, r7
     cda:	27f0      	movs	r7, #240	; 0xf0
     cdc:	00ff      	lsls	r7, r7, #3
     cde:	46b8      	mov	r8, r7
     ce0:	2796      	movs	r7, #150	; 0x96
     ce2:	52d4      	strh	r4, [r2, r3]
     ce4:	52cc      	strh	r4, [r1, r3]
     ce6:	52c4      	strh	r4, [r0, r3]
     ce8:	52ec      	strh	r4, [r5, r3]
     cea:	4443      	add	r3, r8
     cec:	027f      	lsls	r7, r7, #9
     cee:	42bb      	cmp	r3, r7
     cf0:	d1f3      	bne.n	cda <hrt_LeftWipe+0xc6>
     cf2:	4665      	mov	r5, ip
     cf4:	e7ae      	b.n	c54 <hrt_LeftWipe+0x40>
     cf6:	21f0      	movs	r1, #240	; 0xf0
     cf8:	006b      	lsls	r3, r5, #1
     cfa:	1ad2      	subs	r2, r2, r3
     cfc:	468c      	mov	ip, r1
     cfe:	32e1      	adds	r2, #225	; 0xe1
     d00:	31e1      	adds	r1, #225	; 0xe1
     d02:	32ff      	adds	r2, #255	; 0xff
     d04:	31ff      	adds	r1, #255	; 0xff
     d06:	1851      	adds	r1, r2, r1
     d08:	000f      	movs	r7, r1
     d0a:	0010      	movs	r0, r2
     d0c:	4494      	add	ip, r2
     d0e:	4661      	mov	r1, ip
     d10:	2300      	movs	r3, #0
     d12:	46ac      	mov	ip, r5
     d14:	003d      	movs	r5, r7
     d16:	30e1      	adds	r0, #225	; 0xe1
     d18:	30ff      	adds	r0, #255	; 0xff
     d1a:	27f0      	movs	r7, #240	; 0xf0
     d1c:	00bf      	lsls	r7, r7, #2
     d1e:	46b8      	mov	r8, r7
     d20:	52d4      	strh	r4, [r2, r3]
     d22:	52cc      	strh	r4, [r1, r3]
     d24:	52c4      	strh	r4, [r0, r3]
     d26:	52ec      	strh	r4, [r5, r3]
     d28:	4443      	add	r3, r8
     d2a:	42b3      	cmp	r3, r6
     d2c:	d1f5      	bne.n	d1a <hrt_LeftWipe+0x106>
     d2e:	4665      	mov	r5, ip
     d30:	e790      	b.n	c54 <hrt_LeftWipe+0x40>
     d32:	46c0      	nop			; (mov r8, r8)
	...

00000d40 <hrt_RightWipe>:
     d40:	b5f0      	push	{r4, r5, r6, r7, lr}
     d42:	46de      	mov	lr, fp
     d44:	4657      	mov	r7, sl
     d46:	464e      	mov	r6, r9
     d48:	4645      	mov	r5, r8
     d4a:	b5e0      	push	{r5, r6, r7, lr}
     d4c:	4b41      	ldr	r3, [pc, #260]	; (e54 <hrt_RightWipe+0x114>)
     d4e:	469b      	mov	fp, r3
     d50:	781b      	ldrb	r3, [r3, #0]
     d52:	b083      	sub	sp, #12
     d54:	0004      	movs	r4, r0
     d56:	468a      	mov	sl, r1
     d58:	9201      	str	r2, [sp, #4]
     d5a:	2b01      	cmp	r3, #1
     d5c:	d008      	beq.n	d70 <hrt_RightWipe+0x30>
     d5e:	b003      	add	sp, #12
     d60:	bc3c      	pop	{r2, r3, r4, r5}
     d62:	4690      	mov	r8, r2
     d64:	4699      	mov	r9, r3
     d66:	46a2      	mov	sl, r4
     d68:	46ab      	mov	fp, r5
     d6a:	bcf0      	pop	{r4, r5, r6, r7}
     d6c:	bc01      	pop	{r0}
     d6e:	4700      	bx	r0
     d70:	2696      	movs	r6, #150	; 0x96
     d72:	4a39      	ldr	r2, [pc, #228]	; (e58 <hrt_RightWipe+0x118>)
     d74:	4691      	mov	r9, r2
     d76:	4a39      	ldr	r2, [pc, #228]	; (e5c <hrt_RightWipe+0x11c>)
     d78:	25f0      	movs	r5, #240	; 0xf0
     d7a:	9200      	str	r2, [sp, #0]
     d7c:	0236      	lsls	r6, r6, #8
     d7e:	e007      	b.n	d90 <hrt_RightWipe+0x50>
     d80:	4650      	mov	r0, sl
     d82:	3d01      	subs	r5, #1
     d84:	f001 f9f5 	bl	2172 <hrt_DSPIsLinearOBJEnabled+0x22>
     d88:	2d00      	cmp	r5, #0
     d8a:	d0e8      	beq.n	d5e <hrt_RightWipe+0x1e>
     d8c:	465b      	mov	r3, fp
     d8e:	781b      	ldrb	r3, [r3, #0]
     d90:	9a00      	ldr	r2, [sp, #0]
     d92:	6812      	ldr	r2, [r2, #0]
     d94:	2b01      	cmp	r3, #1
     d96:	d1f3      	bne.n	d80 <hrt_RightWipe+0x40>
     d98:	9b01      	ldr	r3, [sp, #4]
     d9a:	2b05      	cmp	r3, #5
     d9c:	d03d      	beq.n	e1a <hrt_RightWipe+0xda>
     d9e:	2b03      	cmp	r3, #3
     da0:	d01d      	beq.n	dde <hrt_RightWipe+0x9e>
     da2:	2b04      	cmp	r3, #4
     da4:	d1ec      	bne.n	d80 <hrt_RightWipe+0x40>
     da6:	006b      	lsls	r3, r5, #1
     da8:	18d2      	adds	r2, r2, r3
     daa:	0010      	movs	r0, r2
     dac:	21f0      	movs	r1, #240	; 0xf0
     dae:	30e1      	adds	r0, #225	; 0xe1
     db0:	468c      	mov	ip, r1
     db2:	30ff      	adds	r0, #255	; 0xff
     db4:	0007      	movs	r7, r0
     db6:	4494      	add	ip, r2
     db8:	4660      	mov	r0, ip
     dba:	2300      	movs	r3, #0
     dbc:	46ac      	mov	ip, r5
     dbe:	003d      	movs	r5, r7
     dc0:	31e1      	adds	r1, #225	; 0xe1
     dc2:	31ff      	adds	r1, #255	; 0xff
     dc4:	1851      	adds	r1, r2, r1
     dc6:	27f0      	movs	r7, #240	; 0xf0
     dc8:	00bf      	lsls	r7, r7, #2
     dca:	46b8      	mov	r8, r7
     dcc:	52d4      	strh	r4, [r2, r3]
     dce:	52c4      	strh	r4, [r0, r3]
     dd0:	52ec      	strh	r4, [r5, r3]
     dd2:	52cc      	strh	r4, [r1, r3]
     dd4:	4443      	add	r3, r8
     dd6:	42b3      	cmp	r3, r6
     dd8:	d1f5      	bne.n	dc6 <hrt_RightWipe+0x86>
     dda:	4665      	mov	r5, ip
     ddc:	e7d0      	b.n	d80 <hrt_RightWipe+0x40>
     dde:	21f0      	movs	r1, #240	; 0xf0
     de0:	006b      	lsls	r3, r5, #1
     de2:	0049      	lsls	r1, r1, #1
     de4:	18d2      	adds	r2, r2, r3
     de6:	468c      	mov	ip, r1
     de8:	1849      	adds	r1, r1, r1
     dea:	1850      	adds	r0, r2, r1
     dec:	31e1      	adds	r1, #225	; 0xe1
     dee:	31ff      	adds	r1, #255	; 0xff
     df0:	1851      	adds	r1, r2, r1
     df2:	000f      	movs	r7, r1
     df4:	4494      	add	ip, r2
     df6:	4661      	mov	r1, ip
     df8:	2300      	movs	r3, #0
     dfa:	46ac      	mov	ip, r5
     dfc:	003d      	movs	r5, r7
     dfe:	27f0      	movs	r7, #240	; 0xf0
     e00:	00ff      	lsls	r7, r7, #3
     e02:	46b8      	mov	r8, r7
     e04:	2796      	movs	r7, #150	; 0x96
     e06:	52d4      	strh	r4, [r2, r3]
     e08:	52cc      	strh	r4, [r1, r3]
     e0a:	52c4      	strh	r4, [r0, r3]
     e0c:	52ec      	strh	r4, [r5, r3]
     e0e:	4443      	add	r3, r8
     e10:	027f      	lsls	r7, r7, #9
     e12:	42bb      	cmp	r3, r7
     e14:	d1f3      	bne.n	dfe <hrt_RightWipe+0xbe>
     e16:	4665      	mov	r5, ip
     e18:	e7b2      	b.n	d80 <hrt_RightWipe+0x40>
     e1a:	21f0      	movs	r1, #240	; 0xf0
     e1c:	006b      	lsls	r3, r5, #1
     e1e:	468c      	mov	ip, r1
     e20:	31e1      	adds	r1, #225	; 0xe1
     e22:	18d2      	adds	r2, r2, r3
     e24:	31ff      	adds	r1, #255	; 0xff
     e26:	1851      	adds	r1, r2, r1
     e28:	000f      	movs	r7, r1
     e2a:	0010      	movs	r0, r2
     e2c:	4494      	add	ip, r2
     e2e:	4661      	mov	r1, ip
     e30:	2300      	movs	r3, #0
     e32:	46ac      	mov	ip, r5
     e34:	003d      	movs	r5, r7
     e36:	30e1      	adds	r0, #225	; 0xe1
     e38:	30ff      	adds	r0, #255	; 0xff
     e3a:	27f0      	movs	r7, #240	; 0xf0
     e3c:	00bf      	lsls	r7, r7, #2
     e3e:	46b8      	mov	r8, r7
     e40:	52d4      	strh	r4, [r2, r3]
     e42:	52cc      	strh	r4, [r1, r3]
     e44:	52c4      	strh	r4, [r0, r3]
     e46:	52ec      	strh	r4, [r5, r3]
     e48:	4443      	add	r3, r8
     e4a:	42b3      	cmp	r3, r6
     e4c:	d1f5      	bne.n	e3a <hrt_RightWipe+0xfa>
     e4e:	4665      	mov	r5, ip
     e50:	e796      	b.n	d80 <hrt_RightWipe+0x40>
     e52:	46c0      	nop			; (mov r8, r8)
	...

00000e60 <hrt_TopWipe>:
     e60:	b5f0      	push	{r4, r5, r6, r7, lr}
     e62:	46de      	mov	lr, fp
     e64:	4657      	mov	r7, sl
     e66:	464e      	mov	r6, r9
     e68:	4645      	mov	r5, r8
     e6a:	b5e0      	push	{r5, r6, r7, lr}
     e6c:	4b4d      	ldr	r3, [pc, #308]	; (fa4 <hrt_TopWipe+0x144>)
     e6e:	469a      	mov	sl, r3
     e70:	781b      	ldrb	r3, [r3, #0]
     e72:	b083      	sub	sp, #12
     e74:	0004      	movs	r4, r0
     e76:	4689      	mov	r9, r1
     e78:	4693      	mov	fp, r2
     e7a:	2b01      	cmp	r3, #1
     e7c:	d008      	beq.n	e90 <hrt_TopWipe+0x30>
     e7e:	b003      	add	sp, #12
     e80:	bc3c      	pop	{r2, r3, r4, r5}
     e82:	4690      	mov	r8, r2
     e84:	4699      	mov	r9, r3
     e86:	46a2      	mov	sl, r4
     e88:	46ab      	mov	fp, r5
     e8a:	bcf0      	pop	{r4, r5, r6, r7}
     e8c:	bc01      	pop	{r0}
     e8e:	4700      	bx	r0
     e90:	4a45      	ldr	r2, [pc, #276]	; (fa8 <hrt_TopWipe+0x148>)
     e92:	0406      	lsls	r6, r0, #16
     e94:	2500      	movs	r5, #0
     e96:	9201      	str	r2, [sp, #4]
     e98:	4f44      	ldr	r7, [pc, #272]	; (fac <hrt_TopWipe+0x14c>)
     e9a:	4306      	orrs	r6, r0
     e9c:	e00a      	b.n	eb4 <hrt_TopWipe+0x54>
     e9e:	9b01      	ldr	r3, [sp, #4]
     ea0:	4648      	mov	r0, r9
     ea2:	f001 f963 	bl	216c <hrt_DSPIsLinearOBJEnabled+0x1c>
     ea6:	2396      	movs	r3, #150	; 0x96
     ea8:	3578      	adds	r5, #120	; 0x78
     eaa:	01db      	lsls	r3, r3, #7
     eac:	429d      	cmp	r5, r3
     eae:	d0e6      	beq.n	e7e <hrt_TopWipe+0x1e>
     eb0:	4653      	mov	r3, sl
     eb2:	781b      	ldrb	r3, [r3, #0]
     eb4:	6839      	ldr	r1, [r7, #0]
     eb6:	006a      	lsls	r2, r5, #1
     eb8:	2b01      	cmp	r3, #1
     eba:	d1f0      	bne.n	e9e <hrt_TopWipe+0x3e>
     ebc:	4658      	mov	r0, fp
     ebe:	2805      	cmp	r0, #5
     ec0:	d04e      	beq.n	f60 <hrt_TopWipe+0x100>
     ec2:	2803      	cmp	r0, #3
     ec4:	d023      	beq.n	f0e <hrt_TopWipe+0xae>
     ec6:	2804      	cmp	r0, #4
     ec8:	d1e9      	bne.n	e9e <hrt_TopWipe+0x3e>
     eca:	0010      	movs	r0, r2
     ecc:	30df      	adds	r0, #223	; 0xdf
     ece:	30ff      	adds	r0, #255	; 0xff
     ed0:	1808      	adds	r0, r1, r0
     ed2:	0840      	lsrs	r0, r0, #1
     ed4:	4018      	ands	r0, r3
     ed6:	d061      	beq.n	f9c <hrt_TopWipe+0x13c>
     ed8:	23ef      	movs	r3, #239	; 0xef
     eda:	188a      	adds	r2, r1, r2
     edc:	32e1      	adds	r2, #225	; 0xe1
     ede:	32ff      	adds	r2, #255	; 0xff
     ee0:	8014      	strh	r4, [r2, #0]
     ee2:	22f1      	movs	r2, #241	; 0xf1
     ee4:	1a12      	subs	r2, r2, r0
     ee6:	4694      	mov	ip, r2
     ee8:	1a2a      	subs	r2, r5, r0
     eea:	32ef      	adds	r2, #239	; 0xef
     eec:	0052      	lsls	r2, r2, #1
     eee:	188a      	adds	r2, r1, r2
     ef0:	0010      	movs	r0, r2
     ef2:	38e1      	subs	r0, #225	; 0xe1
     ef4:	38ff      	subs	r0, #255	; 0xff
     ef6:	6016      	str	r6, [r2, #0]
     ef8:	3a04      	subs	r2, #4
     efa:	4290      	cmp	r0, r2
     efc:	d1fb      	bne.n	ef6 <hrt_TopWipe+0x96>
     efe:	4662      	mov	r2, ip
     f00:	3bf0      	subs	r3, #240	; 0xf0
     f02:	2af0      	cmp	r2, #240	; 0xf0
     f04:	d0cb      	beq.n	e9e <hrt_TopWipe+0x3e>
     f06:	18eb      	adds	r3, r5, r3
     f08:	005b      	lsls	r3, r3, #1
     f0a:	525c      	strh	r4, [r3, r1]
     f0c:	e7c7      	b.n	e9e <hrt_TopWipe+0x3e>
     f0e:	00a8      	lsls	r0, r5, #2
     f10:	4680      	mov	r8, r0
     f12:	20ef      	movs	r0, #239	; 0xef
     f14:	0040      	lsls	r0, r0, #1
     f16:	4684      	mov	ip, r0
     f18:	44c4      	add	ip, r8
     f1a:	448c      	add	ip, r1
     f1c:	4660      	mov	r0, ip
     f1e:	0840      	lsrs	r0, r0, #1
     f20:	4003      	ands	r3, r0
     f22:	d038      	beq.n	f96 <hrt_TopWipe+0x136>
     f24:	4640      	mov	r0, r8
     f26:	1808      	adds	r0, r1, r0
     f28:	30e1      	adds	r0, #225	; 0xe1
     f2a:	30ff      	adds	r0, #255	; 0xff
     f2c:	8004      	strh	r4, [r0, #0]
     f2e:	20ef      	movs	r0, #239	; 0xef
     f30:	4684      	mov	ip, r0
     f32:	20f1      	movs	r0, #241	; 0xf1
     f34:	1ac0      	subs	r0, r0, r3
     f36:	1ad3      	subs	r3, r2, r3
     f38:	33ef      	adds	r3, #239	; 0xef
     f3a:	005b      	lsls	r3, r3, #1
     f3c:	18cb      	adds	r3, r1, r3
     f3e:	4680      	mov	r8, r0
     f40:	0018      	movs	r0, r3
     f42:	38e1      	subs	r0, #225	; 0xe1
     f44:	38ff      	subs	r0, #255	; 0xff
     f46:	601e      	str	r6, [r3, #0]
     f48:	3b04      	subs	r3, #4
     f4a:	4283      	cmp	r3, r0
     f4c:	d1fb      	bne.n	f46 <hrt_TopWipe+0xe6>
     f4e:	4660      	mov	r0, ip
     f50:	4643      	mov	r3, r8
     f52:	38f0      	subs	r0, #240	; 0xf0
     f54:	2bf0      	cmp	r3, #240	; 0xf0
     f56:	d0a2      	beq.n	e9e <hrt_TopWipe+0x3e>
     f58:	1812      	adds	r2, r2, r0
     f5a:	0052      	lsls	r2, r2, #1
     f5c:	5254      	strh	r4, [r2, r1]
     f5e:	e79e      	b.n	e9e <hrt_TopWipe+0x3e>
     f60:	0010      	movs	r0, r2
     f62:	30df      	adds	r0, #223	; 0xdf
     f64:	30ff      	adds	r0, #255	; 0xff
     f66:	1808      	adds	r0, r1, r0
     f68:	0840      	lsrs	r0, r0, #1
     f6a:	4018      	ands	r0, r3
     f6c:	d018      	beq.n	fa0 <hrt_TopWipe+0x140>
     f6e:	188a      	adds	r2, r1, r2
     f70:	32e1      	adds	r2, #225	; 0xe1
     f72:	32ff      	adds	r2, #255	; 0xff
     f74:	8014      	strh	r4, [r2, #0]
     f76:	33ee      	adds	r3, #238	; 0xee
     f78:	22f1      	movs	r2, #241	; 0xf1
     f7a:	1a12      	subs	r2, r2, r0
     f7c:	4694      	mov	ip, r2
     f7e:	1a2a      	subs	r2, r5, r0
     f80:	32ef      	adds	r2, #239	; 0xef
     f82:	0052      	lsls	r2, r2, #1
     f84:	188a      	adds	r2, r1, r2
     f86:	0010      	movs	r0, r2
     f88:	38e1      	subs	r0, #225	; 0xe1
     f8a:	38ff      	subs	r0, #255	; 0xff
     f8c:	6016      	str	r6, [r2, #0]
     f8e:	3a04      	subs	r2, #4
     f90:	4290      	cmp	r0, r2
     f92:	d1fb      	bne.n	f8c <hrt_TopWipe+0x12c>
     f94:	e7b3      	b.n	efe <hrt_TopWipe+0x9e>
     f96:	20f0      	movs	r0, #240	; 0xf0
     f98:	4684      	mov	ip, r0
     f9a:	e7ca      	b.n	f32 <hrt_TopWipe+0xd2>
     f9c:	23f0      	movs	r3, #240	; 0xf0
     f9e:	e7a0      	b.n	ee2 <hrt_TopWipe+0x82>
     fa0:	23f0      	movs	r3, #240	; 0xf0
     fa2:	e7e9      	b.n	f78 <hrt_TopWipe+0x118>
	...

00000fb0 <hrt_BottomWipe>:
     fb0:	b5f0      	push	{r4, r5, r6, r7, lr}
     fb2:	4657      	mov	r7, sl
     fb4:	464e      	mov	r6, r9
     fb6:	46de      	mov	lr, fp
     fb8:	4645      	mov	r5, r8
     fba:	b5e0      	push	{r5, r6, r7, lr}
     fbc:	4b51      	ldr	r3, [pc, #324]	; (1104 <hrt_BottomWipe+0x154>)
     fbe:	469a      	mov	sl, r3
     fc0:	781b      	ldrb	r3, [r3, #0]
     fc2:	b083      	sub	sp, #12
     fc4:	0004      	movs	r4, r0
     fc6:	4689      	mov	r9, r1
     fc8:	9201      	str	r2, [sp, #4]
     fca:	2b01      	cmp	r3, #1
     fcc:	d008      	beq.n	fe0 <hrt_BottomWipe+0x30>
     fce:	b003      	add	sp, #12
     fd0:	bc3c      	pop	{r2, r3, r4, r5}
     fd2:	4690      	mov	r8, r2
     fd4:	4699      	mov	r9, r3
     fd6:	46a2      	mov	sl, r4
     fd8:	46ab      	mov	fp, r5
     fda:	bcf0      	pop	{r4, r5, r6, r7}
     fdc:	bc01      	pop	{r0}
     fde:	4700      	bx	r0
     fe0:	2596      	movs	r5, #150	; 0x96
     fe2:	4a49      	ldr	r2, [pc, #292]	; (1108 <hrt_BottomWipe+0x158>)
     fe4:	0406      	lsls	r6, r0, #16
     fe6:	01ed      	lsls	r5, r5, #7
     fe8:	4690      	mov	r8, r2
     fea:	4f48      	ldr	r7, [pc, #288]	; (110c <hrt_BottomWipe+0x15c>)
     fec:	4306      	orrs	r6, r0
     fee:	e007      	b.n	1000 <hrt_BottomWipe+0x50>
     ff0:	4648      	mov	r0, r9
     ff2:	3d78      	subs	r5, #120	; 0x78
     ff4:	f001 f8bc 	bl	2170 <hrt_DSPIsLinearOBJEnabled+0x20>
     ff8:	2d00      	cmp	r5, #0
     ffa:	d0e8      	beq.n	fce <hrt_BottomWipe+0x1e>
     ffc:	4653      	mov	r3, sl
     ffe:	781b      	ldrb	r3, [r3, #0]
    1000:	6839      	ldr	r1, [r7, #0]
    1002:	006a      	lsls	r2, r5, #1
    1004:	2b01      	cmp	r3, #1
    1006:	d1f3      	bne.n	ff0 <hrt_BottomWipe+0x40>
    1008:	9801      	ldr	r0, [sp, #4]
    100a:	2805      	cmp	r0, #5
    100c:	d055      	beq.n	10ba <hrt_BottomWipe+0x10a>
    100e:	2803      	cmp	r0, #3
    1010:	d027      	beq.n	1062 <hrt_BottomWipe+0xb2>
    1012:	2804      	cmp	r0, #4
    1014:	d1ec      	bne.n	ff0 <hrt_BottomWipe+0x40>
    1016:	0010      	movs	r0, r2
    1018:	30df      	adds	r0, #223	; 0xdf
    101a:	30ff      	adds	r0, #255	; 0xff
    101c:	1808      	adds	r0, r1, r0
    101e:	0840      	lsrs	r0, r0, #1
    1020:	4003      	ands	r3, r0
    1022:	d068      	beq.n	10f6 <hrt_BottomWipe+0x146>
    1024:	188a      	adds	r2, r1, r2
    1026:	32e1      	adds	r2, #225	; 0xe1
    1028:	32ff      	adds	r2, #255	; 0xff
    102a:	8014      	strh	r4, [r2, #0]
    102c:	22ef      	movs	r2, #239	; 0xef
    102e:	4694      	mov	ip, r2
    1030:	20f0      	movs	r0, #240	; 0xf0
    1032:	1aea      	subs	r2, r5, r3
    1034:	1ac0      	subs	r0, r0, r3
    1036:	32ef      	adds	r2, #239	; 0xef
    1038:	0052      	lsls	r2, r2, #1
    103a:	0843      	lsrs	r3, r0, #1
    103c:	188a      	adds	r2, r1, r2
    103e:	009b      	lsls	r3, r3, #2
    1040:	1ad3      	subs	r3, r2, r3
    1042:	6016      	str	r6, [r2, #0]
    1044:	3a04      	subs	r2, #4
    1046:	4293      	cmp	r3, r2
    1048:	d1fb      	bne.n	1042 <hrt_BottomWipe+0x92>
    104a:	2201      	movs	r2, #1
    104c:	0003      	movs	r3, r0
    104e:	4393      	bics	r3, r2
    1050:	001a      	movs	r2, r3
    1052:	4663      	mov	r3, ip
    1054:	1a9b      	subs	r3, r3, r2
    1056:	4290      	cmp	r0, r2
    1058:	d0ca      	beq.n	ff0 <hrt_BottomWipe+0x40>
    105a:	18eb      	adds	r3, r5, r3
    105c:	005b      	lsls	r3, r3, #1
    105e:	525c      	strh	r4, [r3, r1]
    1060:	e7c6      	b.n	ff0 <hrt_BottomWipe+0x40>
    1062:	00a8      	lsls	r0, r5, #2
    1064:	4683      	mov	fp, r0
    1066:	20ef      	movs	r0, #239	; 0xef
    1068:	0040      	lsls	r0, r0, #1
    106a:	4684      	mov	ip, r0
    106c:	44dc      	add	ip, fp
    106e:	448c      	add	ip, r1
    1070:	4660      	mov	r0, ip
    1072:	0840      	lsrs	r0, r0, #1
    1074:	4003      	ands	r3, r0
    1076:	d03b      	beq.n	10f0 <hrt_BottomWipe+0x140>
    1078:	4658      	mov	r0, fp
    107a:	1808      	adds	r0, r1, r0
    107c:	30e1      	adds	r0, #225	; 0xe1
    107e:	30ff      	adds	r0, #255	; 0xff
    1080:	8004      	strh	r4, [r0, #0]
    1082:	20ef      	movs	r0, #239	; 0xef
    1084:	4684      	mov	ip, r0
    1086:	20f0      	movs	r0, #240	; 0xf0
    1088:	1ac0      	subs	r0, r0, r3
    108a:	1ad3      	subs	r3, r2, r3
    108c:	33ef      	adds	r3, #239	; 0xef
    108e:	4683      	mov	fp, r0
    1090:	005b      	lsls	r3, r3, #1
    1092:	0840      	lsrs	r0, r0, #1
    1094:	18cb      	adds	r3, r1, r3
    1096:	0080      	lsls	r0, r0, #2
    1098:	1a18      	subs	r0, r3, r0
    109a:	601e      	str	r6, [r3, #0]
    109c:	3b04      	subs	r3, #4
    109e:	4283      	cmp	r3, r0
    10a0:	d1fb      	bne.n	109a <hrt_BottomWipe+0xea>
    10a2:	2301      	movs	r3, #1
    10a4:	4658      	mov	r0, fp
    10a6:	4398      	bics	r0, r3
    10a8:	0003      	movs	r3, r0
    10aa:	4660      	mov	r0, ip
    10ac:	1ac0      	subs	r0, r0, r3
    10ae:	459b      	cmp	fp, r3
    10b0:	d09e      	beq.n	ff0 <hrt_BottomWipe+0x40>
    10b2:	1812      	adds	r2, r2, r0
    10b4:	0052      	lsls	r2, r2, #1
    10b6:	5254      	strh	r4, [r2, r1]
    10b8:	e79a      	b.n	ff0 <hrt_BottomWipe+0x40>
    10ba:	0010      	movs	r0, r2
    10bc:	30df      	adds	r0, #223	; 0xdf
    10be:	30ff      	adds	r0, #255	; 0xff
    10c0:	1808      	adds	r0, r1, r0
    10c2:	0840      	lsrs	r0, r0, #1
    10c4:	4003      	ands	r3, r0
    10c6:	d019      	beq.n	10fc <hrt_BottomWipe+0x14c>
    10c8:	188a      	adds	r2, r1, r2
    10ca:	32e1      	adds	r2, #225	; 0xe1
    10cc:	32ff      	adds	r2, #255	; 0xff
    10ce:	8014      	strh	r4, [r2, #0]
    10d0:	22ef      	movs	r2, #239	; 0xef
    10d2:	4694      	mov	ip, r2
    10d4:	20f0      	movs	r0, #240	; 0xf0
    10d6:	1aea      	subs	r2, r5, r3
    10d8:	1ac0      	subs	r0, r0, r3
    10da:	32ef      	adds	r2, #239	; 0xef
    10dc:	0052      	lsls	r2, r2, #1
    10de:	0843      	lsrs	r3, r0, #1
    10e0:	188a      	adds	r2, r1, r2
    10e2:	009b      	lsls	r3, r3, #2
    10e4:	1ad3      	subs	r3, r2, r3
    10e6:	6016      	str	r6, [r2, #0]
    10e8:	3a04      	subs	r2, #4
    10ea:	4293      	cmp	r3, r2
    10ec:	d1fb      	bne.n	10e6 <hrt_BottomWipe+0x136>
    10ee:	e7ac      	b.n	104a <hrt_BottomWipe+0x9a>
    10f0:	20f0      	movs	r0, #240	; 0xf0
    10f2:	4684      	mov	ip, r0
    10f4:	e7c7      	b.n	1086 <hrt_BottomWipe+0xd6>
    10f6:	22f0      	movs	r2, #240	; 0xf0
    10f8:	4694      	mov	ip, r2
    10fa:	e799      	b.n	1030 <hrt_BottomWipe+0x80>
    10fc:	22f0      	movs	r2, #240	; 0xf0
    10fe:	4694      	mov	ip, r2
    1100:	e7e8      	b.n	10d4 <hrt_BottomWipe+0x124>
    1102:	46c0      	nop			; (mov r8, r8)
	...

00001110 <hrt_CircleWipe>:
    1110:	b5f0      	push	{r4, r5, r6, r7, lr}
    1112:	46ce      	mov	lr, r9
    1114:	4647      	mov	r7, r8
    1116:	b580      	push	{r7, lr}
    1118:	4d15      	ldr	r5, [pc, #84]	; (1170 <hrt_CircleWipe+0x60>)
    111a:	782b      	ldrb	r3, [r5, #0]
    111c:	b083      	sub	sp, #12
    111e:	4680      	mov	r8, r0
    1120:	000e      	movs	r6, r1
    1122:	4691      	mov	r9, r2
    1124:	2b01      	cmp	r3, #1
    1126:	d006      	beq.n	1136 <hrt_CircleWipe+0x26>
    1128:	b003      	add	sp, #12
    112a:	bc0c      	pop	{r2, r3}
    112c:	4690      	mov	r8, r2
    112e:	4699      	mov	r9, r3
    1130:	bcf0      	pop	{r4, r5, r6, r7}
    1132:	bc01      	pop	{r0}
    1134:	4700      	bx	r0
    1136:	2400      	movs	r4, #0
    1138:	4f0e      	ldr	r7, [pc, #56]	; (1174 <hrt_CircleWipe+0x64>)
    113a:	2b01      	cmp	r3, #1
    113c:	d008      	beq.n	1150 <hrt_CircleWipe+0x40>
    113e:	0030      	movs	r0, r6
    1140:	3401      	adds	r4, #1
    1142:	f001 f814 	bl	216e <hrt_DSPIsLinearOBJEnabled+0x1e>
    1146:	2c78      	cmp	r4, #120	; 0x78
    1148:	d0ee      	beq.n	1128 <hrt_CircleWipe+0x18>
    114a:	782b      	ldrb	r3, [r5, #0]
    114c:	2b01      	cmp	r3, #1
    114e:	d1f6      	bne.n	113e <hrt_CircleWipe+0x2e>
    1150:	464b      	mov	r3, r9
    1152:	0022      	movs	r2, r4
    1154:	9300      	str	r3, [sp, #0]
    1156:	2150      	movs	r1, #80	; 0x50
    1158:	4643      	mov	r3, r8
    115a:	2078      	movs	r0, #120	; 0x78
    115c:	f7fe ff50 	bl	0 <hrt_DrawCircle.part.2>
    1160:	3401      	adds	r4, #1
    1162:	0030      	movs	r0, r6
    1164:	f001 f803 	bl	216e <hrt_DSPIsLinearOBJEnabled+0x1e>
    1168:	2c78      	cmp	r4, #120	; 0x78
    116a:	d0dd      	beq.n	1128 <hrt_CircleWipe+0x18>
    116c:	782b      	ldrb	r3, [r5, #0]
    116e:	e7ed      	b.n	114c <hrt_CircleWipe+0x3c>
	...

00001178 <hrt_CoolScanLines>:
    1178:	b5f8      	push	{r3, r4, r5, r6, r7, lr}
    117a:	4657      	mov	r7, sl
    117c:	4645      	mov	r5, r8
    117e:	46de      	mov	lr, fp
    1180:	464e      	mov	r6, r9
    1182:	4b94      	ldr	r3, [pc, #592]	; (13d4 <hrt_CoolScanLines+0x25c>)
    1184:	4692      	mov	sl, r2
    1186:	781a      	ldrb	r2, [r3, #0]
    1188:	b5e0      	push	{r5, r6, r7, lr}
    118a:	0005      	movs	r5, r0
    118c:	000f      	movs	r7, r1
    118e:	2a01      	cmp	r2, #1
    1190:	d007      	beq.n	11a2 <hrt_CoolScanLines+0x2a>
    1192:	bc3c      	pop	{r2, r3, r4, r5}
    1194:	4690      	mov	r8, r2
    1196:	4699      	mov	r9, r3
    1198:	46a2      	mov	sl, r4
    119a:	46ab      	mov	fp, r5
    119c:	bcf8      	pop	{r3, r4, r5, r6, r7}
    119e:	bc01      	pop	{r0}
    11a0:	4700      	bx	r0
    11a2:	4b8d      	ldr	r3, [pc, #564]	; (13d8 <hrt_CoolScanLines+0x260>)
    11a4:	4698      	mov	r8, r3
    11a6:	0403      	lsls	r3, r0, #16
    11a8:	4303      	orrs	r3, r0
    11aa:	2478      	movs	r4, #120	; 0x78
    11ac:	4699      	mov	r9, r3
    11ae:	e008      	b.n	11c2 <hrt_CoolScanLines+0x4a>
    11b0:	0038      	movs	r0, r7
    11b2:	f000 ffdd 	bl	2170 <hrt_DSPIsLinearOBJEnabled+0x20>
    11b6:	4b89      	ldr	r3, [pc, #548]	; (13dc <hrt_CoolScanLines+0x264>)
    11b8:	34f0      	adds	r4, #240	; 0xf0
    11ba:	429c      	cmp	r4, r3
    11bc:	d035      	beq.n	122a <hrt_CoolScanLines+0xb2>
    11be:	4b85      	ldr	r3, [pc, #532]	; (13d4 <hrt_CoolScanLines+0x25c>)
    11c0:	781a      	ldrb	r2, [r3, #0]
    11c2:	2a01      	cmp	r2, #1
    11c4:	d1f4      	bne.n	11b0 <hrt_CoolScanLines+0x38>
    11c6:	4650      	mov	r0, sl
    11c8:	4b85      	ldr	r3, [pc, #532]	; (13e0 <hrt_CoolScanLines+0x268>)
    11ca:	6819      	ldr	r1, [r3, #0]
    11cc:	0063      	lsls	r3, r4, #1
    11ce:	2803      	cmp	r0, #3
    11d0:	d067      	beq.n	12a2 <hrt_CoolScanLines+0x12a>
    11d2:	2804      	cmp	r0, #4
    11d4:	d100      	bne.n	11d8 <hrt_CoolScanLines+0x60>
    11d6:	e08a      	b.n	12ee <hrt_CoolScanLines+0x176>
    11d8:	2805      	cmp	r0, #5
    11da:	d1e9      	bne.n	11b0 <hrt_CoolScanLines+0x38>
    11dc:	18cb      	adds	r3, r1, r3
    11de:	0858      	lsrs	r0, r3, #1
    11e0:	4240      	negs	r0, r0
    11e2:	4002      	ands	r2, r0
    11e4:	d100      	bne.n	11e8 <hrt_CoolScanLines+0x70>
    11e6:	e0a5      	b.n	1334 <hrt_CoolScanLines+0x1bc>
    11e8:	801d      	strh	r5, [r3, #0]
    11ea:	2301      	movs	r3, #1
    11ec:	469c      	mov	ip, r3
    11ee:	20f0      	movs	r0, #240	; 0xf0
    11f0:	1a80      	subs	r0, r0, r2
    11f2:	18a2      	adds	r2, r4, r2
    11f4:	0052      	lsls	r2, r2, #1
    11f6:	0843      	lsrs	r3, r0, #1
    11f8:	188a      	adds	r2, r1, r2
    11fa:	009b      	lsls	r3, r3, #2
    11fc:	189b      	adds	r3, r3, r2
    11fe:	464e      	mov	r6, r9
    1200:	c240      	stmia	r2!, {r6}
    1202:	429a      	cmp	r2, r3
    1204:	d1fb      	bne.n	11fe <hrt_CoolScanLines+0x86>
    1206:	2201      	movs	r2, #1
    1208:	0003      	movs	r3, r0
    120a:	4393      	bics	r3, r2
    120c:	001a      	movs	r2, r3
    120e:	4663      	mov	r3, ip
    1210:	18d3      	adds	r3, r2, r3
    1212:	4290      	cmp	r0, r2
    1214:	d0cc      	beq.n	11b0 <hrt_CoolScanLines+0x38>
    1216:	18e3      	adds	r3, r4, r3
    1218:	005b      	lsls	r3, r3, #1
    121a:	525d      	strh	r5, [r3, r1]
    121c:	0038      	movs	r0, r7
    121e:	f000 ffa7 	bl	2170 <hrt_DSPIsLinearOBJEnabled+0x20>
    1222:	4b6e      	ldr	r3, [pc, #440]	; (13dc <hrt_CoolScanLines+0x264>)
    1224:	34f0      	adds	r4, #240	; 0xf0
    1226:	429c      	cmp	r4, r3
    1228:	d1c9      	bne.n	11be <hrt_CoolScanLines+0x46>
    122a:	24e1      	movs	r4, #225	; 0xe1
    122c:	042b      	lsls	r3, r5, #16
    122e:	432b      	orrs	r3, r5
    1230:	01e4      	lsls	r4, r4, #7
    1232:	4699      	mov	r9, r3
    1234:	e005      	b.n	1242 <hrt_CoolScanLines+0xca>
    1236:	0038      	movs	r0, r7
    1238:	3cf0      	subs	r4, #240	; 0xf0
    123a:	f000 ff99 	bl	2170 <hrt_DSPIsLinearOBJEnabled+0x20>
    123e:	2c00      	cmp	r4, #0
    1240:	d0a7      	beq.n	1192 <hrt_CoolScanLines+0x1a>
    1242:	4b64      	ldr	r3, [pc, #400]	; (13d4 <hrt_CoolScanLines+0x25c>)
    1244:	781a      	ldrb	r2, [r3, #0]
    1246:	2a01      	cmp	r2, #1
    1248:	d1f5      	bne.n	1236 <hrt_CoolScanLines+0xbe>
    124a:	4650      	mov	r0, sl
    124c:	4b64      	ldr	r3, [pc, #400]	; (13e0 <hrt_CoolScanLines+0x268>)
    124e:	6819      	ldr	r1, [r3, #0]
    1250:	0063      	lsls	r3, r4, #1
    1252:	2803      	cmp	r0, #3
    1254:	d071      	beq.n	133a <hrt_CoolScanLines+0x1c2>
    1256:	2804      	cmp	r0, #4
    1258:	d100      	bne.n	125c <hrt_CoolScanLines+0xe4>
    125a:	e094      	b.n	1386 <hrt_CoolScanLines+0x20e>
    125c:	2805      	cmp	r0, #5
    125e:	d1ea      	bne.n	1236 <hrt_CoolScanLines+0xbe>
    1260:	18cb      	adds	r3, r1, r3
    1262:	0858      	lsrs	r0, r3, #1
    1264:	4240      	negs	r0, r0
    1266:	4002      	ands	r2, r0
    1268:	d100      	bne.n	126c <hrt_CoolScanLines+0xf4>
    126a:	e0af      	b.n	13cc <hrt_CoolScanLines+0x254>
    126c:	801d      	strh	r5, [r3, #0]
    126e:	2301      	movs	r3, #1
    1270:	469c      	mov	ip, r3
    1272:	20f0      	movs	r0, #240	; 0xf0
    1274:	1a80      	subs	r0, r0, r2
    1276:	1912      	adds	r2, r2, r4
    1278:	0052      	lsls	r2, r2, #1
    127a:	0843      	lsrs	r3, r0, #1
    127c:	188a      	adds	r2, r1, r2
    127e:	009b      	lsls	r3, r3, #2
    1280:	189b      	adds	r3, r3, r2
    1282:	464e      	mov	r6, r9
    1284:	c240      	stmia	r2!, {r6}
    1286:	429a      	cmp	r2, r3
    1288:	d1fb      	bne.n	1282 <hrt_CoolScanLines+0x10a>
    128a:	2201      	movs	r2, #1
    128c:	0003      	movs	r3, r0
    128e:	4393      	bics	r3, r2
    1290:	001a      	movs	r2, r3
    1292:	4663      	mov	r3, ip
    1294:	18d3      	adds	r3, r2, r3
    1296:	4282      	cmp	r2, r0
    1298:	d0cd      	beq.n	1236 <hrt_CoolScanLines+0xbe>
    129a:	18e3      	adds	r3, r4, r3
    129c:	005b      	lsls	r3, r3, #1
    129e:	525d      	strh	r5, [r3, r1]
    12a0:	e7c9      	b.n	1236 <hrt_CoolScanLines+0xbe>
    12a2:	00a0      	lsls	r0, r4, #2
    12a4:	4684      	mov	ip, r0
    12a6:	448c      	add	ip, r1
    12a8:	4660      	mov	r0, ip
    12aa:	0840      	lsrs	r0, r0, #1
    12ac:	4240      	negs	r0, r0
    12ae:	4002      	ands	r2, r0
    12b0:	d03a      	beq.n	1328 <hrt_CoolScanLines+0x1b0>
    12b2:	4660      	mov	r0, ip
    12b4:	8005      	strh	r5, [r0, #0]
    12b6:	2001      	movs	r0, #1
    12b8:	4683      	mov	fp, r0
    12ba:	20f0      	movs	r0, #240	; 0xf0
    12bc:	1a80      	subs	r0, r0, r2
    12be:	189a      	adds	r2, r3, r2
    12c0:	4684      	mov	ip, r0
    12c2:	0052      	lsls	r2, r2, #1
    12c4:	0840      	lsrs	r0, r0, #1
    12c6:	188a      	adds	r2, r1, r2
    12c8:	0080      	lsls	r0, r0, #2
    12ca:	1880      	adds	r0, r0, r2
    12cc:	464e      	mov	r6, r9
    12ce:	c240      	stmia	r2!, {r6}
    12d0:	4290      	cmp	r0, r2
    12d2:	d1fb      	bne.n	12cc <hrt_CoolScanLines+0x154>
    12d4:	2201      	movs	r2, #1
    12d6:	4660      	mov	r0, ip
    12d8:	4390      	bics	r0, r2
    12da:	0002      	movs	r2, r0
    12dc:	4658      	mov	r0, fp
    12de:	1810      	adds	r0, r2, r0
    12e0:	4594      	cmp	ip, r2
    12e2:	d100      	bne.n	12e6 <hrt_CoolScanLines+0x16e>
    12e4:	e764      	b.n	11b0 <hrt_CoolScanLines+0x38>
    12e6:	181b      	adds	r3, r3, r0
    12e8:	005b      	lsls	r3, r3, #1
    12ea:	525d      	strh	r5, [r3, r1]
    12ec:	e760      	b.n	11b0 <hrt_CoolScanLines+0x38>
    12ee:	18cb      	adds	r3, r1, r3
    12f0:	0858      	lsrs	r0, r3, #1
    12f2:	4240      	negs	r0, r0
    12f4:	4002      	ands	r2, r0
    12f6:	d01a      	beq.n	132e <hrt_CoolScanLines+0x1b6>
    12f8:	801d      	strh	r5, [r3, #0]
    12fa:	2301      	movs	r3, #1
    12fc:	469c      	mov	ip, r3
    12fe:	20f0      	movs	r0, #240	; 0xf0
    1300:	1a80      	subs	r0, r0, r2
    1302:	18a2      	adds	r2, r4, r2
    1304:	0052      	lsls	r2, r2, #1
    1306:	188b      	adds	r3, r1, r2
    1308:	0842      	lsrs	r2, r0, #1
    130a:	0092      	lsls	r2, r2, #2
    130c:	18d2      	adds	r2, r2, r3
    130e:	464e      	mov	r6, r9
    1310:	c340      	stmia	r3!, {r6}
    1312:	4293      	cmp	r3, r2
    1314:	d1fb      	bne.n	130e <hrt_CoolScanLines+0x196>
    1316:	2301      	movs	r3, #1
    1318:	0002      	movs	r2, r0
    131a:	439a      	bics	r2, r3
    131c:	4663      	mov	r3, ip
    131e:	18d3      	adds	r3, r2, r3
    1320:	4290      	cmp	r0, r2
    1322:	d000      	beq.n	1326 <hrt_CoolScanLines+0x1ae>
    1324:	e777      	b.n	1216 <hrt_CoolScanLines+0x9e>
    1326:	e743      	b.n	11b0 <hrt_CoolScanLines+0x38>
    1328:	2000      	movs	r0, #0
    132a:	4683      	mov	fp, r0
    132c:	e7c5      	b.n	12ba <hrt_CoolScanLines+0x142>
    132e:	2300      	movs	r3, #0
    1330:	469c      	mov	ip, r3
    1332:	e7e4      	b.n	12fe <hrt_CoolScanLines+0x186>
    1334:	2300      	movs	r3, #0
    1336:	469c      	mov	ip, r3
    1338:	e759      	b.n	11ee <hrt_CoolScanLines+0x76>
    133a:	00a0      	lsls	r0, r4, #2
    133c:	4684      	mov	ip, r0
    133e:	448c      	add	ip, r1
    1340:	4660      	mov	r0, ip
    1342:	0840      	lsrs	r0, r0, #1
    1344:	4240      	negs	r0, r0
    1346:	4002      	ands	r2, r0
    1348:	d03a      	beq.n	13c0 <hrt_CoolScanLines+0x248>
    134a:	4660      	mov	r0, ip
    134c:	8005      	strh	r5, [r0, #0]
    134e:	2001      	movs	r0, #1
    1350:	4683      	mov	fp, r0
    1352:	20f0      	movs	r0, #240	; 0xf0
    1354:	1a80      	subs	r0, r0, r2
    1356:	18d2      	adds	r2, r2, r3
    1358:	4684      	mov	ip, r0
    135a:	0052      	lsls	r2, r2, #1
    135c:	0840      	lsrs	r0, r0, #1
    135e:	188a      	adds	r2, r1, r2
    1360:	0080      	lsls	r0, r0, #2
    1362:	1880      	adds	r0, r0, r2
    1364:	464e      	mov	r6, r9
    1366:	c240      	stmia	r2!, {r6}
    1368:	4282      	cmp	r2, r0
    136a:	d1fb      	bne.n	1364 <hrt_CoolScanLines+0x1ec>
    136c:	2201      	movs	r2, #1
    136e:	4660      	mov	r0, ip
    1370:	4390      	bics	r0, r2
    1372:	0002      	movs	r2, r0
    1374:	4658      	mov	r0, fp
    1376:	1810      	adds	r0, r2, r0
    1378:	4594      	cmp	ip, r2
    137a:	d100      	bne.n	137e <hrt_CoolScanLines+0x206>
    137c:	e75b      	b.n	1236 <hrt_CoolScanLines+0xbe>
    137e:	181b      	adds	r3, r3, r0
    1380:	005b      	lsls	r3, r3, #1
    1382:	525d      	strh	r5, [r3, r1]
    1384:	e757      	b.n	1236 <hrt_CoolScanLines+0xbe>
    1386:	18cb      	adds	r3, r1, r3
    1388:	0858      	lsrs	r0, r3, #1
    138a:	4240      	negs	r0, r0
    138c:	4002      	ands	r2, r0
    138e:	d01a      	beq.n	13c6 <hrt_CoolScanLines+0x24e>
    1390:	801d      	strh	r5, [r3, #0]
    1392:	2301      	movs	r3, #1
    1394:	469c      	mov	ip, r3
    1396:	20f0      	movs	r0, #240	; 0xf0
    1398:	1a80      	subs	r0, r0, r2
    139a:	1912      	adds	r2, r2, r4
    139c:	0052      	lsls	r2, r2, #1
    139e:	188b      	adds	r3, r1, r2
    13a0:	0842      	lsrs	r2, r0, #1
    13a2:	0092      	lsls	r2, r2, #2
    13a4:	18d2      	adds	r2, r2, r3
    13a6:	464e      	mov	r6, r9
    13a8:	c340      	stmia	r3!, {r6}
    13aa:	4293      	cmp	r3, r2
    13ac:	d1fb      	bne.n	13a6 <hrt_CoolScanLines+0x22e>
    13ae:	2301      	movs	r3, #1
    13b0:	0002      	movs	r2, r0
    13b2:	439a      	bics	r2, r3
    13b4:	4663      	mov	r3, ip
    13b6:	18d3      	adds	r3, r2, r3
    13b8:	4290      	cmp	r0, r2
    13ba:	d000      	beq.n	13be <hrt_CoolScanLines+0x246>
    13bc:	e76d      	b.n	129a <hrt_CoolScanLines+0x122>
    13be:	e73a      	b.n	1236 <hrt_CoolScanLines+0xbe>
    13c0:	2000      	movs	r0, #0
    13c2:	4683      	mov	fp, r0
    13c4:	e7c5      	b.n	1352 <hrt_CoolScanLines+0x1da>
    13c6:	2300      	movs	r3, #0
    13c8:	469c      	mov	ip, r3
    13ca:	e7e4      	b.n	1396 <hrt_CoolScanLines+0x21e>
    13cc:	2300      	movs	r3, #0
    13ce:	469c      	mov	ip, r3
    13d0:	e74f      	b.n	1272 <hrt_CoolScanLines+0xfa>
    13d2:	46c0      	nop			; (mov r8, r8)
	...
    13dc:	00004b78 	andeq	r4, r0, r8, ror fp
    13e0:	00000000 	andeq	r0, r0, r0

000013e4 <hrt_GetBGPalEntry>:
    13e4:	4b05      	ldr	r3, [pc, #20]	; (13fc <hrt_GetBGPalEntry+0x18>)
    13e6:	781a      	ldrb	r2, [r3, #0]
    13e8:	2300      	movs	r3, #0
    13ea:	2a01      	cmp	r2, #1
    13ec:	d001      	beq.n	13f2 <hrt_GetBGPalEntry+0xe>
    13ee:	0018      	movs	r0, r3
    13f0:	4770      	bx	lr
    13f2:	4b03      	ldr	r3, [pc, #12]	; (1400 <hrt_GetBGPalEntry+0x1c>)
    13f4:	68db      	ldr	r3, [r3, #12]
    13f6:	0040      	lsls	r0, r0, #1
    13f8:	5ac3      	ldrh	r3, [r0, r3]
    13fa:	e7f8      	b.n	13ee <hrt_GetBGPalEntry+0xa>
	...

00001404 <hrt_GetOBJPalEntry>:
    1404:	4b05      	ldr	r3, [pc, #20]	; (141c <hrt_GetOBJPalEntry+0x18>)
    1406:	781a      	ldrb	r2, [r3, #0]
    1408:	2300      	movs	r3, #0
    140a:	2a01      	cmp	r2, #1
    140c:	d001      	beq.n	1412 <hrt_GetOBJPalEntry+0xe>
    140e:	0018      	movs	r0, r3
    1410:	4770      	bx	lr
    1412:	4b03      	ldr	r3, [pc, #12]	; (1420 <hrt_GetOBJPalEntry+0x1c>)
    1414:	681b      	ldr	r3, [r3, #0]
    1416:	0040      	lsls	r0, r0, #1
    1418:	5ac3      	ldrh	r3, [r0, r3]
    141a:	e7f8      	b.n	140e <hrt_GetOBJPalEntry+0xa>
	...

00001424 <hrt_SetBGPalEntry>:
    1424:	4b04      	ldr	r3, [pc, #16]	; (1438 <hrt_SetBGPalEntry+0x14>)
    1426:	781b      	ldrb	r3, [r3, #0]
    1428:	2b01      	cmp	r3, #1
    142a:	d103      	bne.n	1434 <hrt_SetBGPalEntry+0x10>
    142c:	4b03      	ldr	r3, [pc, #12]	; (143c <hrt_SetBGPalEntry+0x18>)
    142e:	68db      	ldr	r3, [r3, #12]
    1430:	0040      	lsls	r0, r0, #1
    1432:	52c1      	strh	r1, [r0, r3]
    1434:	4770      	bx	lr
    1436:	46c0      	nop			; (mov r8, r8)
	...

00001440 <hrt_SetOBJPalEntry>:
    1440:	4b04      	ldr	r3, [pc, #16]	; (1454 <hrt_SetOBJPalEntry+0x14>)
    1442:	781b      	ldrb	r3, [r3, #0]
    1444:	2b01      	cmp	r3, #1
    1446:	d103      	bne.n	1450 <hrt_SetOBJPalEntry+0x10>
    1448:	4b03      	ldr	r3, [pc, #12]	; (1458 <hrt_SetOBJPalEntry+0x18>)
    144a:	681b      	ldr	r3, [r3, #0]
    144c:	0040      	lsls	r0, r0, #1
    144e:	52c1      	strh	r1, [r0, r3]
    1450:	4770      	bx	lr
    1452:	46c0      	nop			; (mov r8, r8)
	...

0000145c <hrt_LoadBGTiles>:
    145c:	b5f0      	push	{r4, r5, r6, r7, lr}
    145e:	46ce      	mov	lr, r9
    1460:	4647      	mov	r7, r8
    1462:	4b27      	ldr	r3, [pc, #156]	; (1500 <hrt_LoadBGTiles+0xa4>)
    1464:	4699      	mov	r9, r3
    1466:	781b      	ldrb	r3, [r3, #0]
    1468:	b580      	push	{r7, lr}
    146a:	2b01      	cmp	r3, #1
    146c:	d005      	beq.n	147a <hrt_LoadBGTiles+0x1e>
    146e:	bc0c      	pop	{r2, r3}
    1470:	4690      	mov	r8, r2
    1472:	4699      	mov	r9, r3
    1474:	bcf0      	pop	{r4, r5, r6, r7}
    1476:	bc01      	pop	{r0}
    1478:	4700      	bx	r0
    147a:	464b      	mov	r3, r9
    147c:	691a      	ldr	r2, [r3, #16]
    147e:	2900      	cmp	r1, #0
    1480:	dd32      	ble.n	14e8 <hrt_LoadBGTiles+0x8c>
    1482:	4b20      	ldr	r3, [pc, #128]	; (1504 <hrt_LoadBGTiles+0xa8>)
    1484:	691e      	ldr	r6, [r3, #16]
    1486:	0053      	lsls	r3, r2, #1
    1488:	18f4      	adds	r4, r6, r3
    148a:	0025      	movs	r5, r4
    148c:	2703      	movs	r7, #3
    148e:	4305      	orrs	r5, r0
    1490:	402f      	ands	r7, r5
    1492:	427d      	negs	r5, r7
    1494:	417d      	adcs	r5, r7
    1496:	46a8      	mov	r8, r5
    1498:	250b      	movs	r5, #11
    149a:	46ac      	mov	ip, r5
    149c:	1e4f      	subs	r7, r1, #1
    149e:	45bc      	cmp	ip, r7
    14a0:	41bf      	sbcs	r7, r7
    14a2:	4645      	mov	r5, r8
    14a4:	427f      	negs	r7, r7
    14a6:	422f      	tst	r7, r5
    14a8:	d022      	beq.n	14f0 <hrt_LoadBGTiles+0x94>
    14aa:	2700      	movs	r7, #0
    14ac:	003d      	movs	r5, r7
    14ae:	3304      	adds	r3, #4
    14b0:	18f3      	adds	r3, r6, r3
    14b2:	4298      	cmp	r0, r3
    14b4:	417d      	adcs	r5, r7
    14b6:	002b      	movs	r3, r5
    14b8:	1d05      	adds	r5, r0, #4
    14ba:	42ac      	cmp	r4, r5
    14bc:	417f      	adcs	r7, r7
    14be:	431f      	orrs	r7, r3
    14c0:	d016      	beq.n	14f0 <hrt_LoadBGTiles+0x94>
    14c2:	2300      	movs	r3, #0
    14c4:	084f      	lsrs	r7, r1, #1
    14c6:	00bf      	lsls	r7, r7, #2
    14c8:	58c5      	ldr	r5, [r0, r3]
    14ca:	50e5      	str	r5, [r4, r3]
    14cc:	3304      	adds	r3, #4
    14ce:	42bb      	cmp	r3, r7
    14d0:	d1fa      	bne.n	14c8 <hrt_LoadBGTiles+0x6c>
    14d2:	2301      	movs	r3, #1
    14d4:	000c      	movs	r4, r1
    14d6:	439c      	bics	r4, r3
    14d8:	0023      	movs	r3, r4
    14da:	42a1      	cmp	r1, r4
    14dc:	d004      	beq.n	14e8 <hrt_LoadBGTiles+0x8c>
    14de:	0064      	lsls	r4, r4, #1
    14e0:	5a20      	ldrh	r0, [r4, r0]
    14e2:	18d3      	adds	r3, r2, r3
    14e4:	005b      	lsls	r3, r3, #1
    14e6:	5398      	strh	r0, [r3, r6]
    14e8:	464b      	mov	r3, r9
    14ea:	1889      	adds	r1, r1, r2
    14ec:	6119      	str	r1, [r3, #16]
    14ee:	e7be      	b.n	146e <hrt_LoadBGTiles+0x12>
    14f0:	2300      	movs	r3, #0
    14f2:	004f      	lsls	r7, r1, #1
    14f4:	5ac6      	ldrh	r6, [r0, r3]
    14f6:	52e6      	strh	r6, [r4, r3]
    14f8:	3302      	adds	r3, #2
    14fa:	429f      	cmp	r7, r3
    14fc:	d1fa      	bne.n	14f4 <hrt_LoadBGTiles+0x98>
    14fe:	e7f3      	b.n	14e8 <hrt_LoadBGTiles+0x8c>
	...

00001508 <hrt_LoadBGMap>:
    1508:	b5f0      	push	{r4, r5, r6, r7, lr}
    150a:	46ce      	mov	lr, r9
    150c:	4647      	mov	r7, r8
    150e:	4b27      	ldr	r3, [pc, #156]	; (15ac <hrt_LoadBGMap+0xa4>)
    1510:	4699      	mov	r9, r3
    1512:	781b      	ldrb	r3, [r3, #0]
    1514:	b580      	push	{r7, lr}
    1516:	2b01      	cmp	r3, #1
    1518:	d005      	beq.n	1526 <hrt_LoadBGMap+0x1e>
    151a:	bc0c      	pop	{r2, r3}
    151c:	4690      	mov	r8, r2
    151e:	4699      	mov	r9, r3
    1520:	bcf0      	pop	{r4, r5, r6, r7}
    1522:	bc01      	pop	{r0}
    1524:	4700      	bx	r0
    1526:	464b      	mov	r3, r9
    1528:	68da      	ldr	r2, [r3, #12]
    152a:	2900      	cmp	r1, #0
    152c:	dd32      	ble.n	1594 <hrt_LoadBGMap+0x8c>
    152e:	4b20      	ldr	r3, [pc, #128]	; (15b0 <hrt_LoadBGMap+0xa8>)
    1530:	681e      	ldr	r6, [r3, #0]
    1532:	0053      	lsls	r3, r2, #1
    1534:	18f4      	adds	r4, r6, r3
    1536:	0025      	movs	r5, r4
    1538:	2703      	movs	r7, #3
    153a:	4305      	orrs	r5, r0
    153c:	402f      	ands	r7, r5
    153e:	427d      	negs	r5, r7
    1540:	417d      	adcs	r5, r7
    1542:	46a8      	mov	r8, r5
    1544:	250b      	movs	r5, #11
    1546:	46ac      	mov	ip, r5
    1548:	1e4f      	subs	r7, r1, #1
    154a:	45bc      	cmp	ip, r7
    154c:	41bf      	sbcs	r7, r7
    154e:	4645      	mov	r5, r8
    1550:	427f      	negs	r7, r7
    1552:	422f      	tst	r7, r5
    1554:	d022      	beq.n	159c <hrt_LoadBGMap+0x94>
    1556:	2700      	movs	r7, #0
    1558:	003d      	movs	r5, r7
    155a:	3304      	adds	r3, #4
    155c:	18f3      	adds	r3, r6, r3
    155e:	4298      	cmp	r0, r3
    1560:	417d      	adcs	r5, r7
    1562:	002b      	movs	r3, r5
    1564:	1d05      	adds	r5, r0, #4
    1566:	42ac      	cmp	r4, r5
    1568:	417f      	adcs	r7, r7
    156a:	431f      	orrs	r7, r3
    156c:	d016      	beq.n	159c <hrt_LoadBGMap+0x94>
    156e:	2300      	movs	r3, #0
    1570:	084f      	lsrs	r7, r1, #1
    1572:	00bf      	lsls	r7, r7, #2
    1574:	58c5      	ldr	r5, [r0, r3]
    1576:	50e5      	str	r5, [r4, r3]
    1578:	3304      	adds	r3, #4
    157a:	42bb      	cmp	r3, r7
    157c:	d1fa      	bne.n	1574 <hrt_LoadBGMap+0x6c>
    157e:	2301      	movs	r3, #1
    1580:	000c      	movs	r4, r1
    1582:	439c      	bics	r4, r3
    1584:	0023      	movs	r3, r4
    1586:	42a1      	cmp	r1, r4
    1588:	d004      	beq.n	1594 <hrt_LoadBGMap+0x8c>
    158a:	0064      	lsls	r4, r4, #1
    158c:	5a20      	ldrh	r0, [r4, r0]
    158e:	18d3      	adds	r3, r2, r3
    1590:	005b      	lsls	r3, r3, #1
    1592:	5398      	strh	r0, [r3, r6]
    1594:	464b      	mov	r3, r9
    1596:	1889      	adds	r1, r1, r2
    1598:	60d9      	str	r1, [r3, #12]
    159a:	e7be      	b.n	151a <hrt_LoadBGMap+0x12>
    159c:	2300      	movs	r3, #0
    159e:	004f      	lsls	r7, r1, #1
    15a0:	5ac6      	ldrh	r6, [r0, r3]
    15a2:	52e6      	strh	r6, [r4, r3]
    15a4:	3302      	adds	r3, #2
    15a6:	429f      	cmp	r7, r3
    15a8:	d1fa      	bne.n	15a0 <hrt_LoadBGMap+0x98>
    15aa:	e7f3      	b.n	1594 <hrt_LoadBGMap+0x8c>
	...

000015b4 <hrt_FillPalette>:
    15b4:	4b25      	ldr	r3, [pc, #148]	; (164c <hrt_FillPalette+0x98>)
    15b6:	781b      	ldrb	r3, [r3, #0]
    15b8:	b570      	push	{r4, r5, r6, lr}
    15ba:	2b01      	cmp	r3, #1
    15bc:	d002      	beq.n	15c4 <hrt_FillPalette+0x10>
    15be:	bc70      	pop	{r4, r5, r6}
    15c0:	bc01      	pop	{r0}
    15c2:	4700      	bx	r0
    15c4:	2800      	cmp	r0, #0
    15c6:	d01e      	beq.n	1606 <hrt_FillPalette+0x52>
    15c8:	2801      	cmp	r0, #1
    15ca:	d132      	bne.n	1632 <hrt_FillPalette+0x7e>
    15cc:	4b20      	ldr	r3, [pc, #128]	; (1650 <hrt_FillPalette+0x9c>)
    15ce:	681a      	ldr	r2, [r3, #0]
    15d0:	0853      	lsrs	r3, r2, #1
    15d2:	425b      	negs	r3, r3
    15d4:	4003      	ands	r3, r0
    15d6:	d037      	beq.n	1648 <hrt_FillPalette+0x94>
    15d8:	8011      	strh	r1, [r2, #0]
    15da:	2680      	movs	r6, #128	; 0x80
    15dc:	0076      	lsls	r6, r6, #1
    15de:	1af6      	subs	r6, r6, r3
    15e0:	0874      	lsrs	r4, r6, #1
    15e2:	005b      	lsls	r3, r3, #1
    15e4:	040d      	lsls	r5, r1, #16
    15e6:	18d3      	adds	r3, r2, r3
    15e8:	00a4      	lsls	r4, r4, #2
    15ea:	430d      	orrs	r5, r1
    15ec:	18e4      	adds	r4, r4, r3
    15ee:	c320      	stmia	r3!, {r5}
    15f0:	429c      	cmp	r4, r3
    15f2:	d1fc      	bne.n	15ee <hrt_FillPalette+0x3a>
    15f4:	2301      	movs	r3, #1
    15f6:	0034      	movs	r4, r6
    15f8:	439c      	bics	r4, r3
    15fa:	1820      	adds	r0, r4, r0
    15fc:	42a6      	cmp	r6, r4
    15fe:	d0de      	beq.n	15be <hrt_FillPalette+0xa>
    1600:	0040      	lsls	r0, r0, #1
    1602:	5281      	strh	r1, [r0, r2]
    1604:	e7db      	b.n	15be <hrt_FillPalette+0xa>
    1606:	4a13      	ldr	r2, [pc, #76]	; (1654 <hrt_FillPalette+0xa0>)
    1608:	68d2      	ldr	r2, [r2, #12]
    160a:	0854      	lsrs	r4, r2, #1
    160c:	4264      	negs	r4, r4
    160e:	4023      	ands	r3, r4
    1610:	d001      	beq.n	1616 <hrt_FillPalette+0x62>
    1612:	8011      	strh	r1, [r2, #0]
    1614:	3001      	adds	r0, #1
    1616:	2680      	movs	r6, #128	; 0x80
    1618:	0076      	lsls	r6, r6, #1
    161a:	1af6      	subs	r6, r6, r3
    161c:	0874      	lsrs	r4, r6, #1
    161e:	005b      	lsls	r3, r3, #1
    1620:	040d      	lsls	r5, r1, #16
    1622:	18d3      	adds	r3, r2, r3
    1624:	00a4      	lsls	r4, r4, #2
    1626:	430d      	orrs	r5, r1
    1628:	18e4      	adds	r4, r4, r3
    162a:	c320      	stmia	r3!, {r5}
    162c:	429c      	cmp	r4, r3
    162e:	d1fc      	bne.n	162a <hrt_FillPalette+0x76>
    1630:	e7e0      	b.n	15f4 <hrt_FillPalette+0x40>
    1632:	2380      	movs	r3, #128	; 0x80
    1634:	2243      	movs	r2, #67	; 0x43
    1636:	04db      	lsls	r3, r3, #19
    1638:	801a      	strh	r2, [r3, #0]
    163a:	2101      	movs	r1, #1
    163c:	4a06      	ldr	r2, [pc, #24]	; (1658 <hrt_FillPalette+0xa4>)
    163e:	4807      	ldr	r0, [pc, #28]	; (165c <hrt_FillPalette+0xa8>)
    1640:	4b07      	ldr	r3, [pc, #28]	; (1660 <hrt_FillPalette+0xac>)
    1642:	f000 fd93 	bl	216c <hrt_DSPIsLinearOBJEnabled+0x1c>
    1646:	e7fe      	b.n	1646 <hrt_FillPalette+0x92>
    1648:	2000      	movs	r0, #0
    164a:	e7c6      	b.n	15da <hrt_FillPalette+0x26>
	...
    165c:	00000014 	andeq	r0, r0, r4, lsl r0
    1660:	00000000 	andeq	r0, r0, r0

00001664 <hrt_SetDSPMode>:
    1664:	b5f0      	push	{r4, r5, r6, r7, lr}
    1666:	4657      	mov	r7, sl
    1668:	464e      	mov	r6, r9
    166a:	4645      	mov	r5, r8
    166c:	46de      	mov	lr, fp
    166e:	b5e0      	push	{r5, r6, r7, lr}
    1670:	b085      	sub	sp, #20
    1672:	ac0e      	add	r4, sp, #56	; 0x38
    1674:	7824      	ldrb	r4, [r4, #0]
    1676:	9402      	str	r4, [sp, #8]
    1678:	ac0f      	add	r4, sp, #60	; 0x3c
    167a:	7824      	ldrb	r4, [r4, #0]
    167c:	9403      	str	r4, [sp, #12]
    167e:	ac10      	add	r4, sp, #64	; 0x40
    1680:	7825      	ldrb	r5, [r4, #0]
    1682:	ac11      	add	r4, sp, #68	; 0x44
    1684:	7826      	ldrb	r6, [r4, #0]
    1686:	ac12      	add	r4, sp, #72	; 0x48
    1688:	7827      	ldrb	r7, [r4, #0]
    168a:	ac13      	add	r4, sp, #76	; 0x4c
    168c:	7824      	ldrb	r4, [r4, #0]
    168e:	46a4      	mov	ip, r4
    1690:	ac14      	add	r4, sp, #80	; 0x50
    1692:	7824      	ldrb	r4, [r4, #0]
    1694:	46a0      	mov	r8, r4
    1696:	ac15      	add	r4, sp, #84	; 0x54
    1698:	7824      	ldrb	r4, [r4, #0]
    169a:	9301      	str	r3, [sp, #4]
    169c:	46a1      	mov	r9, r4
    169e:	4b1b      	ldr	r3, [pc, #108]	; (170c <hrt_SetDSPMode+0xa8>)
    16a0:	ac16      	add	r4, sp, #88	; 0x58
    16a2:	7824      	ldrb	r4, [r4, #0]
    16a4:	781b      	ldrb	r3, [r3, #0]
    16a6:	46a2      	mov	sl, r4
    16a8:	ac17      	add	r4, sp, #92	; 0x5c
    16aa:	7824      	ldrb	r4, [r4, #0]
    16ac:	2b01      	cmp	r3, #1
    16ae:	d123      	bne.n	16f8 <hrt_SetDSPMode+0x94>
    16b0:	4653      	mov	r3, sl
    16b2:	03e4      	lsls	r4, r4, #15
    16b4:	039b      	lsls	r3, r3, #14
    16b6:	431c      	orrs	r4, r3
    16b8:	464b      	mov	r3, r9
    16ba:	035b      	lsls	r3, r3, #13
    16bc:	431c      	orrs	r4, r3
    16be:	4643      	mov	r3, r8
    16c0:	031b      	lsls	r3, r3, #12
    16c2:	431c      	orrs	r4, r3
    16c4:	4663      	mov	r3, ip
    16c6:	02db      	lsls	r3, r3, #11
    16c8:	431c      	orrs	r4, r3
    16ca:	02bf      	lsls	r7, r7, #10
    16cc:	9b03      	ldr	r3, [sp, #12]
    16ce:	4327      	orrs	r7, r4
    16d0:	0276      	lsls	r6, r6, #9
    16d2:	433e      	orrs	r6, r7
    16d4:	022d      	lsls	r5, r5, #8
    16d6:	4335      	orrs	r5, r6
    16d8:	01de      	lsls	r6, r3, #7
    16da:	9b02      	ldr	r3, [sp, #8]
    16dc:	4335      	orrs	r5, r6
    16de:	019e      	lsls	r6, r3, #6
    16e0:	9b01      	ldr	r3, [sp, #4]
    16e2:	4335      	orrs	r5, r6
    16e4:	015b      	lsls	r3, r3, #5
    16e6:	431d      	orrs	r5, r3
    16e8:	2380      	movs	r3, #128	; 0x80
    16ea:	4305      	orrs	r5, r0
    16ec:	0112      	lsls	r2, r2, #4
    16ee:	4315      	orrs	r5, r2
    16f0:	00c9      	lsls	r1, r1, #3
    16f2:	430d      	orrs	r5, r1
    16f4:	04db      	lsls	r3, r3, #19
    16f6:	801d      	strh	r5, [r3, #0]
    16f8:	b005      	add	sp, #20
    16fa:	bc3c      	pop	{r2, r3, r4, r5}
    16fc:	4690      	mov	r8, r2
    16fe:	4699      	mov	r9, r3
    1700:	46a2      	mov	sl, r4
    1702:	46ab      	mov	fp, r5
    1704:	bcf0      	pop	{r4, r5, r6, r7}
    1706:	bc01      	pop	{r0}
    1708:	4700      	bx	r0
    170a:	46c0      	nop			; (mov r8, r8)
    170c:	00000000 	andeq	r0, r0, r0

00001710 <hrt_ConfigBG>:
    1710:	b5f0      	push	{r4, r5, r6, r7, lr}
    1712:	46c6      	mov	lr, r8
    1714:	b500      	push	{lr}
    1716:	4698      	mov	r8, r3
    1718:	4b12      	ldr	r3, [pc, #72]	; (1764 <hrt_ConfigBG+0x54>)
    171a:	ac06      	add	r4, sp, #24
    171c:	7825      	ldrb	r5, [r4, #0]
    171e:	781b      	ldrb	r3, [r3, #0]
    1720:	ac07      	add	r4, sp, #28
    1722:	7826      	ldrb	r6, [r4, #0]
    1724:	af09      	add	r7, sp, #36	; 0x24
    1726:	ac08      	add	r4, sp, #32
    1728:	7824      	ldrb	r4, [r4, #0]
    172a:	783f      	ldrb	r7, [r7, #0]
    172c:	2b01      	cmp	r3, #1
    172e:	d113      	bne.n	1758 <hrt_ConfigBG+0x48>
    1730:	4b0d      	ldr	r3, [pc, #52]	; (1768 <hrt_ConfigBG+0x58>)
    1732:	469c      	mov	ip, r3
    1734:	4643      	mov	r3, r8
    1736:	0364      	lsls	r4, r4, #13
    1738:	03bf      	lsls	r7, r7, #14
    173a:	433c      	orrs	r4, r7
    173c:	0236      	lsls	r6, r6, #8
    173e:	4334      	orrs	r4, r6
    1740:	01ed      	lsls	r5, r5, #7
    1742:	432c      	orrs	r4, r5
    1744:	430c      	orrs	r4, r1
    1746:	019b      	lsls	r3, r3, #6
    1748:	431c      	orrs	r4, r3
    174a:	0092      	lsls	r2, r2, #2
    174c:	4314      	orrs	r4, r2
    174e:	4460      	add	r0, ip
    1750:	0424      	lsls	r4, r4, #16
    1752:	0040      	lsls	r0, r0, #1
    1754:	0c24      	lsrs	r4, r4, #16
    1756:	8004      	strh	r4, [r0, #0]
    1758:	bc04      	pop	{r2}
    175a:	4690      	mov	r8, r2
    175c:	bcf0      	pop	{r4, r5, r6, r7}
    175e:	bc01      	pop	{r0}
    1760:	4700      	bx	r0
    1762:	46c0      	nop			; (mov r8, r8)
    1764:	00000000 	andeq	r0, r0, r0
    1768:	02000004 	andeq	r0, r0, #4

0000176c <hrt_LineWipe>:
    176c:	b5f0      	push	{r4, r5, r6, r7, lr}
    176e:	464e      	mov	r6, r9
    1770:	4645      	mov	r5, r8
    1772:	46de      	mov	lr, fp
    1774:	4657      	mov	r7, sl
    1776:	b5e0      	push	{r5, r6, r7, lr}
    1778:	4b7b      	ldr	r3, [pc, #492]	; (1968 <hrt_LineWipe+0x1fc>)
    177a:	4699      	mov	r9, r3
    177c:	781b      	ldrb	r3, [r3, #0]
    177e:	b087      	sub	sp, #28
    1780:	0005      	movs	r5, r0
    1782:	9204      	str	r2, [sp, #16]
    1784:	2b01      	cmp	r3, #1
    1786:	d008      	beq.n	179a <hrt_LineWipe+0x2e>
    1788:	b007      	add	sp, #28
    178a:	bc3c      	pop	{r2, r3, r4, r5}
    178c:	4690      	mov	r8, r2
    178e:	4699      	mov	r9, r3
    1790:	46a2      	mov	sl, r4
    1792:	46ab      	mov	fp, r5
    1794:	bcf0      	pop	{r4, r5, r6, r7}
    1796:	bc01      	pop	{r0}
    1798:	4700      	bx	r0
    179a:	4a74      	ldr	r2, [pc, #464]	; (196c <hrt_LineWipe+0x200>)
    179c:	4693      	mov	fp, r2
    179e:	9a04      	ldr	r2, [sp, #16]
    17a0:	4c73      	ldr	r4, [pc, #460]	; (1970 <hrt_LineWipe+0x204>)
    17a2:	4e74      	ldr	r6, [pc, #464]	; (1974 <hrt_LineWipe+0x208>)
    17a4:	9101      	str	r1, [sp, #4]
    17a6:	4690      	mov	r8, r2
    17a8:	e008      	b.n	17bc <hrt_LineWipe+0x50>
    17aa:	9801      	ldr	r0, [sp, #4]
    17ac:	3402      	adds	r4, #2
    17ae:	f000 fce1 	bl	2174 <hrt_DSPIsLinearOBJEnabled+0x24>
    17b2:	0023      	movs	r3, r4
    17b4:	33a0      	adds	r3, #160	; 0xa0
    17b6:	d047      	beq.n	1848 <hrt_LineWipe+0xdc>
    17b8:	464b      	mov	r3, r9
    17ba:	781b      	ldrb	r3, [r3, #0]
    17bc:	2b01      	cmp	r3, #1
    17be:	d1f4      	bne.n	17aa <hrt_LineWipe+0x3e>
    17c0:	23f0      	movs	r3, #240	; 0xf0
    17c2:	005b      	lsls	r3, r3, #1
    17c4:	469a      	mov	sl, r3
    17c6:	0022      	movs	r2, r4
    17c8:	4643      	mov	r3, r8
    17ca:	32f0      	adds	r2, #240	; 0xf0
    17cc:	44a2      	add	sl, r4
    17ce:	6837      	ldr	r7, [r6, #0]
    17d0:	2b03      	cmp	r3, #3
    17d2:	d015      	beq.n	1800 <hrt_LineWipe+0x94>
    17d4:	2b04      	cmp	r3, #4
    17d6:	d025      	beq.n	1824 <hrt_LineWipe+0xb8>
    17d8:	2b05      	cmp	r3, #5
    17da:	d1e6      	bne.n	17aa <hrt_LineWipe+0x3e>
    17dc:	2000      	movs	r0, #0
    17de:	21f0      	movs	r1, #240	; 0xf0
    17e0:	e003      	b.n	17ea <hrt_LineWipe+0x7e>
    17e2:	1912      	adds	r2, r2, r4
    17e4:	3001      	adds	r0, #1
    17e6:	2900      	cmp	r1, #0
    17e8:	d0df      	beq.n	17aa <hrt_LineWipe+0x3e>
    17ea:	0103      	lsls	r3, r0, #4
    17ec:	1a1b      	subs	r3, r3, r0
    17ee:	00db      	lsls	r3, r3, #3
    17f0:	185b      	adds	r3, r3, r1
    17f2:	005b      	lsls	r3, r3, #1
    17f4:	53dd      	strh	r5, [r3, r7]
    17f6:	3901      	subs	r1, #1
    17f8:	2a00      	cmp	r2, #0
    17fa:	daf2      	bge.n	17e2 <hrt_LineWipe+0x76>
    17fc:	4452      	add	r2, sl
    17fe:	e7f2      	b.n	17e6 <hrt_LineWipe+0x7a>
    1800:	2000      	movs	r0, #0
    1802:	21f0      	movs	r1, #240	; 0xf0
    1804:	e003      	b.n	180e <hrt_LineWipe+0xa2>
    1806:	1912      	adds	r2, r2, r4
    1808:	3001      	adds	r0, #1
    180a:	2900      	cmp	r1, #0
    180c:	d0cd      	beq.n	17aa <hrt_LineWipe+0x3e>
    180e:	0103      	lsls	r3, r0, #4
    1810:	1a1b      	subs	r3, r3, r0
    1812:	011b      	lsls	r3, r3, #4
    1814:	185b      	adds	r3, r3, r1
    1816:	005b      	lsls	r3, r3, #1
    1818:	53dd      	strh	r5, [r3, r7]
    181a:	3901      	subs	r1, #1
    181c:	2a00      	cmp	r2, #0
    181e:	daf2      	bge.n	1806 <hrt_LineWipe+0x9a>
    1820:	4452      	add	r2, sl
    1822:	e7f2      	b.n	180a <hrt_LineWipe+0x9e>
    1824:	2000      	movs	r0, #0
    1826:	21f0      	movs	r1, #240	; 0xf0
    1828:	e003      	b.n	1832 <hrt_LineWipe+0xc6>
    182a:	1912      	adds	r2, r2, r4
    182c:	3001      	adds	r0, #1
    182e:	2900      	cmp	r1, #0
    1830:	d0bb      	beq.n	17aa <hrt_LineWipe+0x3e>
    1832:	0103      	lsls	r3, r0, #4
    1834:	1a1b      	subs	r3, r3, r0
    1836:	00db      	lsls	r3, r3, #3
    1838:	185b      	adds	r3, r3, r1
    183a:	005b      	lsls	r3, r3, #1
    183c:	53dd      	strh	r5, [r3, r7]
    183e:	3901      	subs	r1, #1
    1840:	2a00      	cmp	r2, #0
    1842:	daf2      	bge.n	182a <hrt_LineWipe+0xbe>
    1844:	4452      	add	r2, sl
    1846:	e7f2      	b.n	182e <hrt_LineWipe+0xc2>
    1848:	9b01      	ldr	r3, [sp, #4]
    184a:	24f0      	movs	r4, #240	; 0xf0
    184c:	9303      	str	r3, [sp, #12]
    184e:	e005      	b.n	185c <hrt_LineWipe+0xf0>
    1850:	9803      	ldr	r0, [sp, #12]
    1852:	3c01      	subs	r4, #1
    1854:	f000 fc8e 	bl	2174 <hrt_DSPIsLinearOBJEnabled+0x24>
    1858:	2c00      	cmp	r4, #0
    185a:	d095      	beq.n	1788 <hrt_LineWipe+0x1c>
    185c:	464b      	mov	r3, r9
    185e:	781b      	ldrb	r3, [r3, #0]
    1860:	2b01      	cmp	r3, #1
    1862:	d1f5      	bne.n	1850 <hrt_LineWipe+0xe4>
    1864:	2c9f      	cmp	r4, #159	; 0x9f
    1866:	d937      	bls.n	18d8 <hrt_LineWipe+0x16c>
    1868:	21a0      	movs	r1, #160	; 0xa0
    186a:	23a0      	movs	r3, #160	; 0xa0
    186c:	0049      	lsls	r1, r1, #1
    186e:	4688      	mov	r8, r1
    1870:	005b      	lsls	r3, r3, #1
    1872:	1b1a      	subs	r2, r3, r4
    1874:	0063      	lsls	r3, r4, #1
    1876:	425b      	negs	r3, r3
    1878:	4498      	add	r8, r3
    187a:	2300      	movs	r3, #0
    187c:	9302      	str	r3, [sp, #8]
    187e:	3301      	adds	r3, #1
    1880:	9301      	str	r3, [sp, #4]
    1882:	4b3c      	ldr	r3, [pc, #240]	; (1974 <hrt_LineWipe+0x208>)
    1884:	681b      	ldr	r3, [r3, #0]
    1886:	469c      	mov	ip, r3
    1888:	9b04      	ldr	r3, [sp, #16]
    188a:	1c67      	adds	r7, r4, #1
    188c:	468a      	mov	sl, r1
    188e:	2b03      	cmp	r3, #3
    1890:	d034      	beq.n	18fc <hrt_LineWipe+0x190>
    1892:	2b04      	cmp	r3, #4
    1894:	d04d      	beq.n	1932 <hrt_LineWipe+0x1c6>
    1896:	2b05      	cmp	r3, #5
    1898:	d1da      	bne.n	1850 <hrt_LineWipe+0xe4>
    189a:	9405      	str	r4, [sp, #20]
    189c:	2601      	movs	r6, #1
    189e:	2100      	movs	r1, #0
    18a0:	20f0      	movs	r0, #240	; 0xf0
    18a2:	4664      	mov	r4, ip
    18a4:	e005      	b.n	18b2 <hrt_LineWipe+0x146>
    18a6:	3601      	adds	r6, #1
    18a8:	4442      	add	r2, r8
    18aa:	3801      	subs	r0, #1
    18ac:	3101      	adds	r1, #1
    18ae:	42b7      	cmp	r7, r6
    18b0:	d010      	beq.n	18d4 <hrt_LineWipe+0x168>
    18b2:	010b      	lsls	r3, r1, #4
    18b4:	1a5b      	subs	r3, r3, r1
    18b6:	00db      	lsls	r3, r3, #3
    18b8:	181b      	adds	r3, r3, r0
    18ba:	005b      	lsls	r3, r3, #1
    18bc:	531d      	strh	r5, [r3, r4]
    18be:	2a00      	cmp	r2, #0
    18c0:	daf1      	bge.n	18a6 <hrt_LineWipe+0x13a>
    18c2:	9b01      	ldr	r3, [sp, #4]
    18c4:	1ac0      	subs	r0, r0, r3
    18c6:	9b02      	ldr	r3, [sp, #8]
    18c8:	469c      	mov	ip, r3
    18ca:	3601      	adds	r6, #1
    18cc:	4452      	add	r2, sl
    18ce:	4461      	add	r1, ip
    18d0:	42b7      	cmp	r7, r6
    18d2:	d1ee      	bne.n	18b2 <hrt_LineWipe+0x146>
    18d4:	9c05      	ldr	r4, [sp, #20]
    18d6:	e7bb      	b.n	1850 <hrt_LineWipe+0xe4>
    18d8:	0063      	lsls	r3, r4, #1
    18da:	469a      	mov	sl, r3
    18dc:	001a      	movs	r2, r3
    18de:	4b26      	ldr	r3, [pc, #152]	; (1978 <hrt_LineWipe+0x20c>)
    18e0:	4453      	add	r3, sl
    18e2:	4698      	mov	r8, r3
    18e4:	2301      	movs	r3, #1
    18e6:	9302      	str	r3, [sp, #8]
    18e8:	2300      	movs	r3, #0
    18ea:	9301      	str	r3, [sp, #4]
    18ec:	4b21      	ldr	r3, [pc, #132]	; (1974 <hrt_LineWipe+0x208>)
    18ee:	681b      	ldr	r3, [r3, #0]
    18f0:	469c      	mov	ip, r3
    18f2:	9b04      	ldr	r3, [sp, #16]
    18f4:	3aa0      	subs	r2, #160	; 0xa0
    18f6:	27a1      	movs	r7, #161	; 0xa1
    18f8:	2b03      	cmp	r3, #3
    18fa:	d1ca      	bne.n	1892 <hrt_LineWipe+0x126>
    18fc:	9405      	str	r4, [sp, #20]
    18fe:	2001      	movs	r0, #1
    1900:	2100      	movs	r1, #0
    1902:	26f0      	movs	r6, #240	; 0xf0
    1904:	4664      	mov	r4, ip
    1906:	e005      	b.n	1914 <hrt_LineWipe+0x1a8>
    1908:	4442      	add	r2, r8
    190a:	3e01      	subs	r6, #1
    190c:	3101      	adds	r1, #1
    190e:	3001      	adds	r0, #1
    1910:	4287      	cmp	r7, r0
    1912:	d0df      	beq.n	18d4 <hrt_LineWipe+0x168>
    1914:	010b      	lsls	r3, r1, #4
    1916:	1a5b      	subs	r3, r3, r1
    1918:	011b      	lsls	r3, r3, #4
    191a:	199b      	adds	r3, r3, r6
    191c:	005b      	lsls	r3, r3, #1
    191e:	531d      	strh	r5, [r3, r4]
    1920:	2a00      	cmp	r2, #0
    1922:	daf1      	bge.n	1908 <hrt_LineWipe+0x19c>
    1924:	9b01      	ldr	r3, [sp, #4]
    1926:	1af6      	subs	r6, r6, r3
    1928:	9b02      	ldr	r3, [sp, #8]
    192a:	469c      	mov	ip, r3
    192c:	4452      	add	r2, sl
    192e:	4461      	add	r1, ip
    1930:	e7ed      	b.n	190e <hrt_LineWipe+0x1a2>
    1932:	9405      	str	r4, [sp, #20]
    1934:	2001      	movs	r0, #1
    1936:	2100      	movs	r1, #0
    1938:	26f0      	movs	r6, #240	; 0xf0
    193a:	4664      	mov	r4, ip
    193c:	e005      	b.n	194a <hrt_LineWipe+0x1de>
    193e:	4442      	add	r2, r8
    1940:	3e01      	subs	r6, #1
    1942:	3101      	adds	r1, #1
    1944:	3001      	adds	r0, #1
    1946:	4287      	cmp	r7, r0
    1948:	d0c4      	beq.n	18d4 <hrt_LineWipe+0x168>
    194a:	010b      	lsls	r3, r1, #4
    194c:	1a5b      	subs	r3, r3, r1
    194e:	00db      	lsls	r3, r3, #3
    1950:	199b      	adds	r3, r3, r6
    1952:	005b      	lsls	r3, r3, #1
    1954:	531d      	strh	r5, [r3, r4]
    1956:	2a00      	cmp	r2, #0
    1958:	daf1      	bge.n	193e <hrt_LineWipe+0x1d2>
    195a:	9b01      	ldr	r3, [sp, #4]
    195c:	1af6      	subs	r6, r6, r3
    195e:	9b02      	ldr	r3, [sp, #8]
    1960:	469c      	mov	ip, r3
    1962:	4452      	add	r2, sl
    1964:	4461      	add	r1, ip
    1966:	e7ed      	b.n	1944 <hrt_LineWipe+0x1d8>
	...
    1970:	fffffe20 			; <UNDEFINED> instruction: 0xfffffe20
    1974:	00000000 	andeq	r0, r0, r0
    1978:	fffffec0 			; <UNDEFINED> instruction: 0xfffffec0

0000197c <hrt_LoadOBJPal>:
    197c:	b5f0      	push	{r4, r5, r6, r7, lr}
    197e:	46ce      	mov	lr, r9
    1980:	4647      	mov	r7, r8
    1982:	4b28      	ldr	r3, [pc, #160]	; (1a24 <hrt_LoadOBJPal+0xa8>)
    1984:	4699      	mov	r9, r3
    1986:	781b      	ldrb	r3, [r3, #0]
    1988:	b580      	push	{r7, lr}
    198a:	2b01      	cmp	r3, #1
    198c:	d005      	beq.n	199a <hrt_LoadOBJPal+0x1e>
    198e:	bc0c      	pop	{r2, r3}
    1990:	4690      	mov	r8, r2
    1992:	4699      	mov	r9, r3
    1994:	bcf0      	pop	{r4, r5, r6, r7}
    1996:	bc01      	pop	{r0}
    1998:	4700      	bx	r0
    199a:	464b      	mov	r3, r9
    199c:	689a      	ldr	r2, [r3, #8]
    199e:	2900      	cmp	r1, #0
    19a0:	d032      	beq.n	1a08 <hrt_LoadOBJPal+0x8c>
    19a2:	4b21      	ldr	r3, [pc, #132]	; (1a28 <hrt_LoadOBJPal+0xac>)
    19a4:	681e      	ldr	r6, [r3, #0]
    19a6:	0053      	lsls	r3, r2, #1
    19a8:	18f4      	adds	r4, r6, r3
    19aa:	0025      	movs	r5, r4
    19ac:	2703      	movs	r7, #3
    19ae:	4305      	orrs	r5, r0
    19b0:	402f      	ands	r7, r5
    19b2:	427d      	negs	r5, r7
    19b4:	417d      	adcs	r5, r7
    19b6:	46a8      	mov	r8, r5
    19b8:	250b      	movs	r5, #11
    19ba:	46ac      	mov	ip, r5
    19bc:	1e4f      	subs	r7, r1, #1
    19be:	45bc      	cmp	ip, r7
    19c0:	41bf      	sbcs	r7, r7
    19c2:	4645      	mov	r5, r8
    19c4:	427f      	negs	r7, r7
    19c6:	422f      	tst	r7, r5
    19c8:	d022      	beq.n	1a10 <hrt_LoadOBJPal+0x94>
    19ca:	2700      	movs	r7, #0
    19cc:	003d      	movs	r5, r7
    19ce:	3304      	adds	r3, #4
    19d0:	18f3      	adds	r3, r6, r3
    19d2:	4298      	cmp	r0, r3
    19d4:	417d      	adcs	r5, r7
    19d6:	002b      	movs	r3, r5
    19d8:	1d05      	adds	r5, r0, #4
    19da:	42ac      	cmp	r4, r5
    19dc:	417f      	adcs	r7, r7
    19de:	431f      	orrs	r7, r3
    19e0:	d016      	beq.n	1a10 <hrt_LoadOBJPal+0x94>
    19e2:	2300      	movs	r3, #0
    19e4:	084f      	lsrs	r7, r1, #1
    19e6:	00bf      	lsls	r7, r7, #2
    19e8:	58c5      	ldr	r5, [r0, r3]
    19ea:	50e5      	str	r5, [r4, r3]
    19ec:	3304      	adds	r3, #4
    19ee:	42bb      	cmp	r3, r7
    19f0:	d1fa      	bne.n	19e8 <hrt_LoadOBJPal+0x6c>
    19f2:	2301      	movs	r3, #1
    19f4:	000c      	movs	r4, r1
    19f6:	439c      	bics	r4, r3
    19f8:	0023      	movs	r3, r4
    19fa:	42a1      	cmp	r1, r4
    19fc:	d004      	beq.n	1a08 <hrt_LoadOBJPal+0x8c>
    19fe:	0064      	lsls	r4, r4, #1
    1a00:	5a20      	ldrh	r0, [r4, r0]
    1a02:	18d3      	adds	r3, r2, r3
    1a04:	005b      	lsls	r3, r3, #1
    1a06:	5398      	strh	r0, [r3, r6]
    1a08:	464b      	mov	r3, r9
    1a0a:	1889      	adds	r1, r1, r2
    1a0c:	6099      	str	r1, [r3, #8]
    1a0e:	e7be      	b.n	198e <hrt_LoadOBJPal+0x12>
    1a10:	2300      	movs	r3, #0
    1a12:	2600      	movs	r6, #0
    1a14:	5ac7      	ldrh	r7, [r0, r3]
    1a16:	3601      	adds	r6, #1
    1a18:	52e7      	strh	r7, [r4, r3]
    1a1a:	3302      	adds	r3, #2
    1a1c:	42b1      	cmp	r1, r6
    1a1e:	dcf9      	bgt.n	1a14 <hrt_LoadOBJPal+0x98>
    1a20:	e7f2      	b.n	1a08 <hrt_LoadOBJPal+0x8c>
    1a22:	46c0      	nop			; (mov r8, r8)
	...

00001a2c <hrt_LoadOBJGFX>:
    1a2c:	b5f0      	push	{r4, r5, r6, r7, lr}
    1a2e:	464f      	mov	r7, r9
    1a30:	46d6      	mov	lr, sl
    1a32:	4646      	mov	r6, r8
    1a34:	4b28      	ldr	r3, [pc, #160]	; (1ad8 <hrt_LoadOBJGFX+0xac>)
    1a36:	4699      	mov	r9, r3
    1a38:	781b      	ldrb	r3, [r3, #0]
    1a3a:	b5c0      	push	{r6, r7, lr}
    1a3c:	2b01      	cmp	r3, #1
    1a3e:	d006      	beq.n	1a4e <hrt_LoadOBJGFX+0x22>
    1a40:	bc1c      	pop	{r2, r3, r4}
    1a42:	4690      	mov	r8, r2
    1a44:	4699      	mov	r9, r3
    1a46:	46a2      	mov	sl, r4
    1a48:	bcf0      	pop	{r4, r5, r6, r7}
    1a4a:	bc01      	pop	{r0}
    1a4c:	4700      	bx	r0
    1a4e:	464b      	mov	r3, r9
    1a50:	685b      	ldr	r3, [r3, #4]
    1a52:	469a      	mov	sl, r3
    1a54:	2900      	cmp	r1, #0
    1a56:	dd32      	ble.n	1abe <hrt_LoadOBJGFX+0x92>
    1a58:	4b20      	ldr	r3, [pc, #128]	; (1adc <hrt_LoadOBJGFX+0xb0>)
    1a5a:	681f      	ldr	r7, [r3, #0]
    1a5c:	2380      	movs	r3, #128	; 0x80
    1a5e:	019b      	lsls	r3, r3, #6
    1a60:	4453      	add	r3, sl
    1a62:	005a      	lsls	r2, r3, #1
    1a64:	18bc      	adds	r4, r7, r2
    1a66:	3204      	adds	r2, #4
    1a68:	4694      	mov	ip, r2
    1a6a:	2200      	movs	r2, #0
    1a6c:	44bc      	add	ip, r7
    1a6e:	4665      	mov	r5, ip
    1a70:	0016      	movs	r6, r2
    1a72:	42a8      	cmp	r0, r5
    1a74:	4156      	adcs	r6, r2
    1a76:	1d05      	adds	r5, r0, #4
    1a78:	42ac      	cmp	r4, r5
    1a7a:	4152      	adcs	r2, r2
    1a7c:	250b      	movs	r5, #11
    1a7e:	46ac      	mov	ip, r5
    1a80:	4316      	orrs	r6, r2
    1a82:	1e4a      	subs	r2, r1, #1
    1a84:	4594      	cmp	ip, r2
    1a86:	4192      	sbcs	r2, r2
    1a88:	4252      	negs	r2, r2
    1a8a:	4232      	tst	r2, r6
    1a8c:	d01b      	beq.n	1ac6 <hrt_LoadOBJGFX+0x9a>
    1a8e:	0002      	movs	r2, r0
    1a90:	4322      	orrs	r2, r4
    1a92:	0792      	lsls	r2, r2, #30
    1a94:	d117      	bne.n	1ac6 <hrt_LoadOBJGFX+0x9a>
    1a96:	084a      	lsrs	r2, r1, #1
    1a98:	0092      	lsls	r2, r2, #2
    1a9a:	4694      	mov	ip, r2
    1a9c:	2200      	movs	r2, #0
    1a9e:	5886      	ldr	r6, [r0, r2]
    1aa0:	50a6      	str	r6, [r4, r2]
    1aa2:	3204      	adds	r2, #4
    1aa4:	4562      	cmp	r2, ip
    1aa6:	d1fa      	bne.n	1a9e <hrt_LoadOBJGFX+0x72>
    1aa8:	2201      	movs	r2, #1
    1aaa:	000c      	movs	r4, r1
    1aac:	4394      	bics	r4, r2
    1aae:	0022      	movs	r2, r4
    1ab0:	42a1      	cmp	r1, r4
    1ab2:	d004      	beq.n	1abe <hrt_LoadOBJGFX+0x92>
    1ab4:	0064      	lsls	r4, r4, #1
    1ab6:	5a20      	ldrh	r0, [r4, r0]
    1ab8:	189b      	adds	r3, r3, r2
    1aba:	005b      	lsls	r3, r3, #1
    1abc:	53d8      	strh	r0, [r3, r7]
    1abe:	464b      	mov	r3, r9
    1ac0:	4451      	add	r1, sl
    1ac2:	6059      	str	r1, [r3, #4]
    1ac4:	e7bc      	b.n	1a40 <hrt_LoadOBJGFX+0x14>
    1ac6:	2300      	movs	r3, #0
    1ac8:	004f      	lsls	r7, r1, #1
    1aca:	5ac2      	ldrh	r2, [r0, r3]
    1acc:	52e2      	strh	r2, [r4, r3]
    1ace:	3302      	adds	r3, #2
    1ad0:	429f      	cmp	r7, r3
    1ad2:	d1fa      	bne.n	1aca <hrt_LoadOBJGFX+0x9e>
    1ad4:	e7f3      	b.n	1abe <hrt_LoadOBJGFX+0x92>
    1ad6:	46c0      	nop			; (mov r8, r8)
	...

00001ae0 <hrt_SetTile>:
    1ae0:	4b05      	ldr	r3, [pc, #20]	; (1af8 <hrt_SetTile+0x18>)
    1ae2:	781b      	ldrb	r3, [r3, #0]
    1ae4:	2b01      	cmp	r3, #1
    1ae6:	d105      	bne.n	1af4 <hrt_SetTile+0x14>
    1ae8:	4b04      	ldr	r3, [pc, #16]	; (1afc <hrt_SetTile+0x1c>)
    1aea:	0209      	lsls	r1, r1, #8
    1aec:	1809      	adds	r1, r1, r0
    1aee:	681b      	ldr	r3, [r3, #0]
    1af0:	0049      	lsls	r1, r1, #1
    1af2:	52ca      	strh	r2, [r1, r3]
    1af4:	4770      	bx	lr
    1af6:	46c0      	nop			; (mov r8, r8)
	...

00001b00 <hrt_ConfigDMA>:
    1b00:	b5f0      	push	{r4, r5, r6, r7, lr}
    1b02:	0006      	movs	r6, r0
    1b04:	a805      	add	r0, sp, #20
    1b06:	ad07      	add	r5, sp, #28
    1b08:	7807      	ldrb	r7, [r0, #0]
    1b0a:	a806      	add	r0, sp, #24
    1b0c:	7804      	ldrb	r4, [r0, #0]
    1b0e:	7828      	ldrb	r0, [r5, #0]
    1b10:	4d0b      	ldr	r5, [pc, #44]	; (1b40 <hrt_ConfigDMA+0x40>)
    1b12:	782d      	ldrb	r5, [r5, #0]
    1b14:	4684      	mov	ip, r0
    1b16:	2000      	movs	r0, #0
    1b18:	2d01      	cmp	r5, #1
    1b1a:	d002      	beq.n	1b22 <hrt_ConfigDMA+0x22>
    1b1c:	bcf0      	pop	{r4, r5, r6, r7}
    1b1e:	bc02      	pop	{r1}
    1b20:	4708      	bx	r1
    1b22:	4660      	mov	r0, ip
    1b24:	03a4      	lsls	r4, r4, #14
    1b26:	03c0      	lsls	r0, r0, #15
    1b28:	4304      	orrs	r4, r0
    1b2a:	033f      	lsls	r7, r7, #12
    1b2c:	433c      	orrs	r4, r7
    1b2e:	029b      	lsls	r3, r3, #10
    1b30:	431c      	orrs	r4, r3
    1b32:	0252      	lsls	r2, r2, #9
    1b34:	4314      	orrs	r4, r2
    1b36:	01c9      	lsls	r1, r1, #7
    1b38:	430c      	orrs	r4, r1
    1b3a:	0170      	lsls	r0, r6, #5
    1b3c:	4320      	orrs	r0, r4
    1b3e:	e7ed      	b.n	1b1c <hrt_ConfigDMA+0x1c>
    1b40:	00000000 	andeq	r0, r0, r0

00001b44 <hrt_GenerateColorFromRGB>:
    1b44:	4b08      	ldr	r3, [pc, #32]	; (1b68 <hrt_GenerateColorFromRGB+0x24>)
    1b46:	781b      	ldrb	r3, [r3, #0]
    1b48:	b510      	push	{r4, lr}
    1b4a:	0004      	movs	r4, r0
    1b4c:	2000      	movs	r0, #0
    1b4e:	2b01      	cmp	r3, #1
    1b50:	d002      	beq.n	1b58 <hrt_GenerateColorFromRGB+0x14>
    1b52:	bc10      	pop	{r4}
    1b54:	bc02      	pop	{r1}
    1b56:	4708      	bx	r1
    1b58:	0292      	lsls	r2, r2, #10
    1b5a:	4322      	orrs	r2, r4
    1b5c:	0149      	lsls	r1, r1, #5
    1b5e:	430a      	orrs	r2, r1
    1b60:	0412      	lsls	r2, r2, #16
    1b62:	0c10      	lsrs	r0, r2, #16
    1b64:	e7f5      	b.n	1b52 <hrt_GenerateColorFromRGB+0xe>
    1b66:	46c0      	nop			; (mov r8, r8)
    1b68:	00000000 	andeq	r0, r0, r0

00001b6c <hrt_GetRedValueFromBGR>:
    1b6c:	4b05      	ldr	r3, [pc, #20]	; (1b84 <hrt_GetRedValueFromBGR+0x18>)
    1b6e:	781b      	ldrb	r3, [r3, #0]
    1b70:	0002      	movs	r2, r0
    1b72:	2000      	movs	r0, #0
    1b74:	2b01      	cmp	r3, #1
    1b76:	d000      	beq.n	1b7a <hrt_GetRedValueFromBGR+0xe>
    1b78:	4770      	bx	lr
    1b7a:	00d2      	lsls	r2, r2, #3
    1b7c:	30ff      	adds	r0, #255	; 0xff
    1b7e:	4010      	ands	r0, r2
    1b80:	e7fa      	b.n	1b78 <hrt_GetRedValueFromBGR+0xc>
    1b82:	46c0      	nop			; (mov r8, r8)
    1b84:	00000000 	andeq	r0, r0, r0

00001b88 <hrt_GetGreenValueFromBGR>:
    1b88:	4a05      	ldr	r2, [pc, #20]	; (1ba0 <hrt_GetGreenValueFromBGR+0x18>)
    1b8a:	7812      	ldrb	r2, [r2, #0]
    1b8c:	0003      	movs	r3, r0
    1b8e:	2000      	movs	r0, #0
    1b90:	2a01      	cmp	r2, #1
    1b92:	d000      	beq.n	1b96 <hrt_GetGreenValueFromBGR+0xe>
    1b94:	4770      	bx	lr
    1b96:	095b      	lsrs	r3, r3, #5
    1b98:	00db      	lsls	r3, r3, #3
    1b9a:	30ff      	adds	r0, #255	; 0xff
    1b9c:	4018      	ands	r0, r3
    1b9e:	e7f9      	b.n	1b94 <hrt_GetGreenValueFromBGR+0xc>
    1ba0:	00000000 	andeq	r0, r0, r0

00001ba4 <hrt_GetBlueValueFromBGR>:
    1ba4:	4a05      	ldr	r2, [pc, #20]	; (1bbc <hrt_GetBlueValueFromBGR+0x18>)
    1ba6:	7812      	ldrb	r2, [r2, #0]
    1ba8:	0003      	movs	r3, r0
    1baa:	2000      	movs	r0, #0
    1bac:	2a01      	cmp	r2, #1
    1bae:	d000      	beq.n	1bb2 <hrt_GetBlueValueFromBGR+0xe>
    1bb0:	4770      	bx	lr
    1bb2:	0a9b      	lsrs	r3, r3, #10
    1bb4:	00db      	lsls	r3, r3, #3
    1bb6:	30ff      	adds	r0, #255	; 0xff
    1bb8:	4018      	ands	r0, r3
    1bba:	e7f9      	b.n	1bb0 <hrt_GetBlueValueFromBGR+0xc>
    1bbc:	00000000 	andeq	r0, r0, r0

00001bc0 <hrt_DSPSetBGMode>:
    1bc0:	4a05      	ldr	r2, [pc, #20]	; (1bd8 <hrt_DSPSetBGMode+0x18>)
    1bc2:	7812      	ldrb	r2, [r2, #0]
    1bc4:	2a01      	cmp	r2, #1
    1bc6:	d106      	bne.n	1bd6 <hrt_DSPSetBGMode+0x16>
    1bc8:	2280      	movs	r2, #128	; 0x80
    1bca:	2107      	movs	r1, #7
    1bcc:	04d2      	lsls	r2, r2, #19
    1bce:	8813      	ldrh	r3, [r2, #0]
    1bd0:	438b      	bics	r3, r1
    1bd2:	4303      	orrs	r3, r0
    1bd4:	8013      	strh	r3, [r2, #0]
    1bd6:	4770      	bx	lr
    1bd8:	00000000 	andeq	r0, r0, r0

00001bdc <hrt_DSPEnableForceBlank>:
    1bdc:	4b05      	ldr	r3, [pc, #20]	; (1bf4 <hrt_DSPEnableForceBlank+0x18>)
    1bde:	781b      	ldrb	r3, [r3, #0]
    1be0:	2b01      	cmp	r3, #1
    1be2:	d105      	bne.n	1bf0 <hrt_DSPEnableForceBlank+0x14>
    1be4:	2280      	movs	r2, #128	; 0x80
    1be6:	2180      	movs	r1, #128	; 0x80
    1be8:	04d2      	lsls	r2, r2, #19
    1bea:	8813      	ldrh	r3, [r2, #0]
    1bec:	430b      	orrs	r3, r1
    1bee:	8013      	strh	r3, [r2, #0]
    1bf0:	4770      	bx	lr
    1bf2:	46c0      	nop			; (mov r8, r8)
    1bf4:	00000000 	andeq	r0, r0, r0

00001bf8 <hrt_DSPDisableForceBlank>:
    1bf8:	4b05      	ldr	r3, [pc, #20]	; (1c10 <hrt_DSPDisableForceBlank+0x18>)
    1bfa:	781b      	ldrb	r3, [r3, #0]
    1bfc:	2b01      	cmp	r3, #1
    1bfe:	d105      	bne.n	1c0c <hrt_DSPDisableForceBlank+0x14>
    1c00:	2280      	movs	r2, #128	; 0x80
    1c02:	2180      	movs	r1, #128	; 0x80
    1c04:	04d2      	lsls	r2, r2, #19
    1c06:	8813      	ldrh	r3, [r2, #0]
    1c08:	438b      	bics	r3, r1
    1c0a:	8013      	strh	r3, [r2, #0]
    1c0c:	4770      	bx	lr
    1c0e:	46c0      	nop			; (mov r8, r8)
    1c10:	00000000 	andeq	r0, r0, r0

00001c14 <hrt_DSPEnableBG>:
    1c14:	4b05      	ldr	r3, [pc, #20]	; (1c2c <hrt_DSPEnableBG+0x18>)
    1c16:	781b      	ldrb	r3, [r3, #0]
    1c18:	2b01      	cmp	r3, #1
    1c1a:	d106      	bne.n	1c2a <hrt_DSPEnableBG+0x16>
    1c1c:	2280      	movs	r2, #128	; 0x80
    1c1e:	3008      	adds	r0, #8
    1c20:	4083      	lsls	r3, r0
    1c22:	04d2      	lsls	r2, r2, #19
    1c24:	8811      	ldrh	r1, [r2, #0]
    1c26:	430b      	orrs	r3, r1
    1c28:	8013      	strh	r3, [r2, #0]
    1c2a:	4770      	bx	lr
    1c2c:	00000000 	andeq	r0, r0, r0

00001c30 <hrt_DSPDisableBG>:
    1c30:	4b05      	ldr	r3, [pc, #20]	; (1c48 <hrt_DSPDisableBG+0x18>)
    1c32:	781b      	ldrb	r3, [r3, #0]
    1c34:	2b01      	cmp	r3, #1
    1c36:	d106      	bne.n	1c46 <hrt_DSPDisableBG+0x16>
    1c38:	2180      	movs	r1, #128	; 0x80
    1c3a:	3008      	adds	r0, #8
    1c3c:	4083      	lsls	r3, r0
    1c3e:	04c9      	lsls	r1, r1, #19
    1c40:	880a      	ldrh	r2, [r1, #0]
    1c42:	439a      	bics	r2, r3
    1c44:	800a      	strh	r2, [r1, #0]
    1c46:	4770      	bx	lr
    1c48:	00000000 	andeq	r0, r0, r0

00001c4c <hrt_DSPEnableOBJ>:
    1c4c:	4b05      	ldr	r3, [pc, #20]	; (1c64 <hrt_DSPEnableOBJ+0x18>)
    1c4e:	781b      	ldrb	r3, [r3, #0]
    1c50:	2b01      	cmp	r3, #1
    1c52:	d106      	bne.n	1c62 <hrt_DSPEnableOBJ+0x16>
    1c54:	2280      	movs	r2, #128	; 0x80
    1c56:	2380      	movs	r3, #128	; 0x80
    1c58:	04d2      	lsls	r2, r2, #19
    1c5a:	8811      	ldrh	r1, [r2, #0]
    1c5c:	015b      	lsls	r3, r3, #5
    1c5e:	430b      	orrs	r3, r1
    1c60:	8013      	strh	r3, [r2, #0]
    1c62:	4770      	bx	lr
    1c64:	00000000 	andeq	r0, r0, r0

00001c68 <hrt_DSPDisableOBJ>:
    1c68:	4b05      	ldr	r3, [pc, #20]	; (1c80 <hrt_DSPDisableOBJ+0x18>)
    1c6a:	781b      	ldrb	r3, [r3, #0]
    1c6c:	2b01      	cmp	r3, #1
    1c6e:	d105      	bne.n	1c7c <hrt_DSPDisableOBJ+0x14>
    1c70:	2280      	movs	r2, #128	; 0x80
    1c72:	04d2      	lsls	r2, r2, #19
    1c74:	8813      	ldrh	r3, [r2, #0]
    1c76:	4903      	ldr	r1, [pc, #12]	; (1c84 <hrt_DSPDisableOBJ+0x1c>)
    1c78:	400b      	ands	r3, r1
    1c7a:	8013      	strh	r3, [r2, #0]
    1c7c:	4770      	bx	lr
    1c7e:	46c0      	nop			; (mov r8, r8)
    1c80:	00000000 	andeq	r0, r0, r0
    1c84:	ffffefff 			; <UNDEFINED> instruction: 0xffffefff

00001c88 <hrt_DSPEnableWIN0>:
    1c88:	4b05      	ldr	r3, [pc, #20]	; (1ca0 <hrt_DSPEnableWIN0+0x18>)
    1c8a:	781b      	ldrb	r3, [r3, #0]
    1c8c:	2b01      	cmp	r3, #1
    1c8e:	d106      	bne.n	1c9e <hrt_DSPEnableWIN0+0x16>
    1c90:	2280      	movs	r2, #128	; 0x80
    1c92:	2380      	movs	r3, #128	; 0x80
    1c94:	04d2      	lsls	r2, r2, #19
    1c96:	8811      	ldrh	r1, [r2, #0]
    1c98:	019b      	lsls	r3, r3, #6
    1c9a:	430b      	orrs	r3, r1
    1c9c:	8013      	strh	r3, [r2, #0]
    1c9e:	4770      	bx	lr
    1ca0:	00000000 	andeq	r0, r0, r0

00001ca4 <hrt_DSPDisableWIN0>:
    1ca4:	4b05      	ldr	r3, [pc, #20]	; (1cbc <hrt_DSPDisableWIN0+0x18>)
    1ca6:	781b      	ldrb	r3, [r3, #0]
    1ca8:	2b01      	cmp	r3, #1
    1caa:	d105      	bne.n	1cb8 <hrt_DSPDisableWIN0+0x14>
    1cac:	2280      	movs	r2, #128	; 0x80
    1cae:	04d2      	lsls	r2, r2, #19
    1cb0:	8813      	ldrh	r3, [r2, #0]
    1cb2:	4903      	ldr	r1, [pc, #12]	; (1cc0 <hrt_DSPDisableWIN0+0x1c>)
    1cb4:	400b      	ands	r3, r1
    1cb6:	8013      	strh	r3, [r2, #0]
    1cb8:	4770      	bx	lr
    1cba:	46c0      	nop			; (mov r8, r8)
    1cbc:	00000000 	andeq	r0, r0, r0
    1cc0:	ffffdfff 			; <UNDEFINED> instruction: 0xffffdfff

00001cc4 <hrt_DSPEnableWIN1>:
    1cc4:	4b05      	ldr	r3, [pc, #20]	; (1cdc <hrt_DSPEnableWIN1+0x18>)
    1cc6:	781b      	ldrb	r3, [r3, #0]
    1cc8:	2b01      	cmp	r3, #1
    1cca:	d106      	bne.n	1cda <hrt_DSPEnableWIN1+0x16>
    1ccc:	2280      	movs	r2, #128	; 0x80
    1cce:	2380      	movs	r3, #128	; 0x80
    1cd0:	04d2      	lsls	r2, r2, #19
    1cd2:	8811      	ldrh	r1, [r2, #0]
    1cd4:	01db      	lsls	r3, r3, #7
    1cd6:	430b      	orrs	r3, r1
    1cd8:	8013      	strh	r3, [r2, #0]
    1cda:	4770      	bx	lr
    1cdc:	00000000 	andeq	r0, r0, r0

00001ce0 <hrt_DSPDisableWIN1>:
    1ce0:	4b05      	ldr	r3, [pc, #20]	; (1cf8 <hrt_DSPDisableWIN1+0x18>)
    1ce2:	781b      	ldrb	r3, [r3, #0]
    1ce4:	2b01      	cmp	r3, #1
    1ce6:	d105      	bne.n	1cf4 <hrt_DSPDisableWIN1+0x14>
    1ce8:	2280      	movs	r2, #128	; 0x80
    1cea:	04d2      	lsls	r2, r2, #19
    1cec:	8813      	ldrh	r3, [r2, #0]
    1cee:	4903      	ldr	r1, [pc, #12]	; (1cfc <hrt_DSPDisableWIN1+0x1c>)
    1cf0:	400b      	ands	r3, r1
    1cf2:	8013      	strh	r3, [r2, #0]
    1cf4:	4770      	bx	lr
    1cf6:	46c0      	nop			; (mov r8, r8)
    1cf8:	00000000 	andeq	r0, r0, r0
    1cfc:	ffffbfff 			; <UNDEFINED> instruction: 0xffffbfff

00001d00 <hrt_DSPEnableWINOBJ>:
    1d00:	4b05      	ldr	r3, [pc, #20]	; (1d18 <hrt_DSPEnableWINOBJ+0x18>)
    1d02:	781b      	ldrb	r3, [r3, #0]
    1d04:	2b01      	cmp	r3, #1
    1d06:	d105      	bne.n	1d14 <hrt_DSPEnableWINOBJ+0x14>
    1d08:	2280      	movs	r2, #128	; 0x80
    1d0a:	04d2      	lsls	r2, r2, #19
    1d0c:	8811      	ldrh	r1, [r2, #0]
    1d0e:	4b03      	ldr	r3, [pc, #12]	; (1d1c <hrt_DSPEnableWINOBJ+0x1c>)
    1d10:	430b      	orrs	r3, r1
    1d12:	8013      	strh	r3, [r2, #0]
    1d14:	4770      	bx	lr
    1d16:	46c0      	nop			; (mov r8, r8)
    1d18:	00000000 	andeq	r0, r0, r0
    1d1c:	ffff8000 			; <UNDEFINED> instruction: 0xffff8000

00001d20 <hrt_DSPDisableWINOBJ>:
    1d20:	4b05      	ldr	r3, [pc, #20]	; (1d38 <hrt_DSPDisableWINOBJ+0x18>)
    1d22:	781b      	ldrb	r3, [r3, #0]
    1d24:	2b01      	cmp	r3, #1
    1d26:	d105      	bne.n	1d34 <hrt_DSPDisableWINOBJ+0x14>
    1d28:	2280      	movs	r2, #128	; 0x80
    1d2a:	04d2      	lsls	r2, r2, #19
    1d2c:	8813      	ldrh	r3, [r2, #0]
    1d2e:	045b      	lsls	r3, r3, #17
    1d30:	0c5b      	lsrs	r3, r3, #17
    1d32:	8013      	strh	r3, [r2, #0]
    1d34:	4770      	bx	lr
    1d36:	46c0      	nop			; (mov r8, r8)
    1d38:	00000000 	andeq	r0, r0, r0

00001d3c <hrt_DSPEnableLinearOBJ>:
    1d3c:	4b05      	ldr	r3, [pc, #20]	; (1d54 <hrt_DSPEnableLinearOBJ+0x18>)
    1d3e:	781b      	ldrb	r3, [r3, #0]
    1d40:	2b01      	cmp	r3, #1
    1d42:	d105      	bne.n	1d50 <hrt_DSPEnableLinearOBJ+0x14>
    1d44:	2280      	movs	r2, #128	; 0x80
    1d46:	2140      	movs	r1, #64	; 0x40
    1d48:	04d2      	lsls	r2, r2, #19
    1d4a:	8813      	ldrh	r3, [r2, #0]
    1d4c:	430b      	orrs	r3, r1
    1d4e:	8013      	strh	r3, [r2, #0]
    1d50:	4770      	bx	lr
    1d52:	46c0      	nop			; (mov r8, r8)
    1d54:	00000000 	andeq	r0, r0, r0

00001d58 <hrt_DSPDisableLinearOBJ>:
    1d58:	4a06      	ldr	r2, [pc, #24]	; (1d74 <hrt_DSPDisableLinearOBJ+0x1c>)
    1d5a:	7813      	ldrb	r3, [r2, #0]
    1d5c:	3b01      	subs	r3, #1
    1d5e:	061b      	lsls	r3, r3, #24
    1d60:	0e1b      	lsrs	r3, r3, #24
    1d62:	7013      	strb	r3, [r2, #0]
    1d64:	d005      	beq.n	1d72 <hrt_DSPDisableLinearOBJ+0x1a>
    1d66:	2280      	movs	r2, #128	; 0x80
    1d68:	2140      	movs	r1, #64	; 0x40
    1d6a:	04d2      	lsls	r2, r2, #19
    1d6c:	8813      	ldrh	r3, [r2, #0]
    1d6e:	438b      	bics	r3, r1
    1d70:	8013      	strh	r3, [r2, #0]
    1d72:	4770      	bx	lr
    1d74:	00000000 	andeq	r0, r0, r0

00001d78 <hrt_DSPGetBGMode>:
    1d78:	4b05      	ldr	r3, [pc, #20]	; (1d90 <hrt_DSPGetBGMode+0x18>)
    1d7a:	781b      	ldrb	r3, [r3, #0]
    1d7c:	2000      	movs	r0, #0
    1d7e:	2b01      	cmp	r3, #1
    1d80:	d000      	beq.n	1d84 <hrt_DSPGetBGMode+0xc>
    1d82:	4770      	bx	lr
    1d84:	2380      	movs	r3, #128	; 0x80
    1d86:	04db      	lsls	r3, r3, #19
    1d88:	881b      	ldrh	r3, [r3, #0]
    1d8a:	3007      	adds	r0, #7
    1d8c:	4018      	ands	r0, r3
    1d8e:	e7f8      	b.n	1d82 <hrt_DSPGetBGMode+0xa>
    1d90:	00000000 	andeq	r0, r0, r0

00001d94 <hrt_BGSet16Color>:
    1d94:	4b06      	ldr	r3, [pc, #24]	; (1db0 <hrt_BGSet16Color+0x1c>)
    1d96:	781b      	ldrb	r3, [r3, #0]
    1d98:	2b01      	cmp	r3, #1
    1d9a:	d107      	bne.n	1dac <hrt_BGSet16Color+0x18>
    1d9c:	4b05      	ldr	r3, [pc, #20]	; (1db4 <hrt_BGSet16Color+0x20>)
    1d9e:	469c      	mov	ip, r3
    1da0:	2280      	movs	r2, #128	; 0x80
    1da2:	4460      	add	r0, ip
    1da4:	0040      	lsls	r0, r0, #1
    1da6:	8803      	ldrh	r3, [r0, #0]
    1da8:	4393      	bics	r3, r2
    1daa:	8003      	strh	r3, [r0, #0]
    1dac:	4770      	bx	lr
    1dae:	46c0      	nop			; (mov r8, r8)
    1db0:	00000000 	andeq	r0, r0, r0
    1db4:	02000004 	andeq	r0, r0, #4

00001db8 <hrt_BGSet256Color>:
    1db8:	4b06      	ldr	r3, [pc, #24]	; (1dd4 <hrt_BGSet256Color+0x1c>)
    1dba:	781b      	ldrb	r3, [r3, #0]
    1dbc:	2b01      	cmp	r3, #1
    1dbe:	d107      	bne.n	1dd0 <hrt_BGSet256Color+0x18>
    1dc0:	4b05      	ldr	r3, [pc, #20]	; (1dd8 <hrt_BGSet256Color+0x20>)
    1dc2:	469c      	mov	ip, r3
    1dc4:	2280      	movs	r2, #128	; 0x80
    1dc6:	4460      	add	r0, ip
    1dc8:	0040      	lsls	r0, r0, #1
    1dca:	8803      	ldrh	r3, [r0, #0]
    1dcc:	4313      	orrs	r3, r2
    1dce:	8003      	strh	r3, [r0, #0]
    1dd0:	4770      	bx	lr
    1dd2:	46c0      	nop			; (mov r8, r8)
    1dd4:	00000000 	andeq	r0, r0, r0
    1dd8:	02000004 	andeq	r0, r0, #4

00001ddc <hrt_BGEnableMosaic>:
    1ddc:	4b06      	ldr	r3, [pc, #24]	; (1df8 <hrt_BGEnableMosaic+0x1c>)
    1dde:	781b      	ldrb	r3, [r3, #0]
    1de0:	2b01      	cmp	r3, #1
    1de2:	d107      	bne.n	1df4 <hrt_BGEnableMosaic+0x18>
    1de4:	4b05      	ldr	r3, [pc, #20]	; (1dfc <hrt_BGEnableMosaic+0x20>)
    1de6:	469c      	mov	ip, r3
    1de8:	2240      	movs	r2, #64	; 0x40
    1dea:	4460      	add	r0, ip
    1dec:	0040      	lsls	r0, r0, #1
    1dee:	8803      	ldrh	r3, [r0, #0]
    1df0:	4313      	orrs	r3, r2
    1df2:	8003      	strh	r3, [r0, #0]
    1df4:	4770      	bx	lr
    1df6:	46c0      	nop			; (mov r8, r8)
    1df8:	00000000 	andeq	r0, r0, r0
    1dfc:	02000004 	andeq	r0, r0, #4

00001e00 <hrt_BGDisableMosaic>:
    1e00:	4b06      	ldr	r3, [pc, #24]	; (1e1c <hrt_BGDisableMosaic+0x1c>)
    1e02:	781b      	ldrb	r3, [r3, #0]
    1e04:	2b01      	cmp	r3, #1
    1e06:	d107      	bne.n	1e18 <hrt_BGDisableMosaic+0x18>
    1e08:	4b05      	ldr	r3, [pc, #20]	; (1e20 <hrt_BGDisableMosaic+0x20>)
    1e0a:	469c      	mov	ip, r3
    1e0c:	2240      	movs	r2, #64	; 0x40
    1e0e:	4460      	add	r0, ip
    1e10:	0040      	lsls	r0, r0, #1
    1e12:	8803      	ldrh	r3, [r0, #0]
    1e14:	4393      	bics	r3, r2
    1e16:	8003      	strh	r3, [r0, #0]
    1e18:	4770      	bx	lr
    1e1a:	46c0      	nop			; (mov r8, r8)
    1e1c:	00000000 	andeq	r0, r0, r0
    1e20:	02000004 	andeq	r0, r0, #4

00001e24 <hrt_BGSetSize>:
    1e24:	4b09      	ldr	r3, [pc, #36]	; (1e4c <hrt_BGSetSize+0x28>)
    1e26:	781b      	ldrb	r3, [r3, #0]
    1e28:	2b01      	cmp	r3, #1
    1e2a:	d10d      	bne.n	1e48 <hrt_BGSetSize+0x24>
    1e2c:	4b08      	ldr	r3, [pc, #32]	; (1e50 <hrt_BGSetSize+0x2c>)
    1e2e:	469c      	mov	ip, r3
    1e30:	4460      	add	r0, ip
    1e32:	0040      	lsls	r0, r0, #1
    1e34:	8803      	ldrh	r3, [r0, #0]
    1e36:	049b      	lsls	r3, r3, #18
    1e38:	0c9b      	lsrs	r3, r3, #18
    1e3a:	8003      	strh	r3, [r0, #0]
    1e3c:	8803      	ldrh	r3, [r0, #0]
    1e3e:	0389      	lsls	r1, r1, #14
    1e40:	4319      	orrs	r1, r3
    1e42:	0409      	lsls	r1, r1, #16
    1e44:	0c09      	lsrs	r1, r1, #16
    1e46:	8001      	strh	r1, [r0, #0]
    1e48:	4770      	bx	lr
    1e4a:	46c0      	nop			; (mov r8, r8)
    1e4c:	00000000 	andeq	r0, r0, r0
    1e50:	02000004 	andeq	r0, r0, #4

00001e54 <hrt_BGSetMapBase>:
    1e54:	4b08      	ldr	r3, [pc, #32]	; (1e78 <hrt_BGSetMapBase+0x24>)
    1e56:	781b      	ldrb	r3, [r3, #0]
    1e58:	2b01      	cmp	r3, #1
    1e5a:	d10b      	bne.n	1e74 <hrt_BGSetMapBase+0x20>
    1e5c:	4b07      	ldr	r3, [pc, #28]	; (1e7c <hrt_BGSetMapBase+0x28>)
    1e5e:	469c      	mov	ip, r3
    1e60:	4460      	add	r0, ip
    1e62:	0040      	lsls	r0, r0, #1
    1e64:	8803      	ldrh	r3, [r0, #0]
    1e66:	4a06      	ldr	r2, [pc, #24]	; (1e80 <hrt_BGSetMapBase+0x2c>)
    1e68:	4013      	ands	r3, r2
    1e6a:	8003      	strh	r3, [r0, #0]
    1e6c:	8803      	ldrh	r3, [r0, #0]
    1e6e:	0209      	lsls	r1, r1, #8
    1e70:	4319      	orrs	r1, r3
    1e72:	8001      	strh	r1, [r0, #0]
    1e74:	4770      	bx	lr
    1e76:	46c0      	nop			; (mov r8, r8)
    1e78:	00000000 	andeq	r0, r0, r0
    1e7c:	02000004 	andeq	r0, r0, #4
    1e80:	ffffe0ff 			; <UNDEFINED> instruction: 0xffffe0ff

00001e84 <hrt_BGSetTileBase>:
    1e84:	4b08      	ldr	r3, [pc, #32]	; (1ea8 <hrt_BGSetTileBase+0x24>)
    1e86:	781b      	ldrb	r3, [r3, #0]
    1e88:	2b01      	cmp	r3, #1
    1e8a:	d10b      	bne.n	1ea4 <hrt_BGSetTileBase+0x20>
    1e8c:	4b07      	ldr	r3, [pc, #28]	; (1eac <hrt_BGSetTileBase+0x28>)
    1e8e:	469c      	mov	ip, r3
    1e90:	220c      	movs	r2, #12
    1e92:	4460      	add	r0, ip
    1e94:	0040      	lsls	r0, r0, #1
    1e96:	8803      	ldrh	r3, [r0, #0]
    1e98:	4393      	bics	r3, r2
    1e9a:	8003      	strh	r3, [r0, #0]
    1e9c:	8803      	ldrh	r3, [r0, #0]
    1e9e:	0089      	lsls	r1, r1, #2
    1ea0:	4319      	orrs	r1, r3
    1ea2:	8001      	strh	r1, [r0, #0]
    1ea4:	4770      	bx	lr
    1ea6:	46c0      	nop			; (mov r8, r8)
    1ea8:	00000000 	andeq	r0, r0, r0
    1eac:	02000004 	andeq	r0, r0, #4

00001eb0 <hrt_BGSetPriority>:
    1eb0:	4b07      	ldr	r3, [pc, #28]	; (1ed0 <hrt_BGSetPriority+0x20>)
    1eb2:	781b      	ldrb	r3, [r3, #0]
    1eb4:	2b01      	cmp	r3, #1
    1eb6:	d10a      	bne.n	1ece <hrt_BGSetPriority+0x1e>
    1eb8:	4b06      	ldr	r3, [pc, #24]	; (1ed4 <hrt_BGSetPriority+0x24>)
    1eba:	469c      	mov	ip, r3
    1ebc:	2302      	movs	r3, #2
    1ebe:	4460      	add	r0, ip
    1ec0:	0040      	lsls	r0, r0, #1
    1ec2:	8802      	ldrh	r2, [r0, #0]
    1ec4:	439a      	bics	r2, r3
    1ec6:	8002      	strh	r2, [r0, #0]
    1ec8:	8803      	ldrh	r3, [r0, #0]
    1eca:	430b      	orrs	r3, r1
    1ecc:	8003      	strh	r3, [r0, #0]
    1ece:	4770      	bx	lr
    1ed0:	00000000 	andeq	r0, r0, r0
    1ed4:	02000004 	andeq	r0, r0, #4

00001ed8 <hrt_SetBGXY>:
    1ed8:	4b0a      	ldr	r3, [pc, #40]	; (1f04 <hrt_SetBGXY+0x2c>)
    1eda:	781b      	ldrb	r3, [r3, #0]
    1edc:	2b01      	cmp	r3, #1
    1ede:	d110      	bne.n	1f02 <hrt_SetBGXY+0x2a>
    1ee0:	4b09      	ldr	r3, [pc, #36]	; (1f08 <hrt_SetBGXY+0x30>)
    1ee2:	0080      	lsls	r0, r0, #2
    1ee4:	0409      	lsls	r1, r1, #16
    1ee6:	18c3      	adds	r3, r0, r3
    1ee8:	0c09      	lsrs	r1, r1, #16
    1eea:	8019      	strh	r1, [r3, #0]
    1eec:	4b07      	ldr	r3, [pc, #28]	; (1f0c <hrt_SetBGXY+0x34>)
    1eee:	21ff      	movs	r1, #255	; 0xff
    1ef0:	469c      	mov	ip, r3
    1ef2:	0413      	lsls	r3, r2, #16
    1ef4:	4460      	add	r0, ip
    1ef6:	400a      	ands	r2, r1
    1ef8:	7801      	ldrb	r1, [r0, #0]
    1efa:	7002      	strb	r2, [r0, #0]
    1efc:	0e1b      	lsrs	r3, r3, #24
    1efe:	7842      	ldrb	r2, [r0, #1]
    1f00:	7043      	strb	r3, [r0, #1]
    1f02:	4770      	bx	lr
    1f04:	00000000 	andeq	r0, r0, r0
    1f08:	0400000a 	streq	r0, [r0], #-10
    1f0c:	0400000b 	streq	r0, [r0], #-11

00001f10 <hrt_SetBGX>:
    1f10:	4b05      	ldr	r3, [pc, #20]	; (1f28 <hrt_SetBGX+0x18>)
    1f12:	781b      	ldrb	r3, [r3, #0]
    1f14:	2b01      	cmp	r3, #1
    1f16:	d106      	bne.n	1f26 <hrt_SetBGX+0x16>
    1f18:	4b04      	ldr	r3, [pc, #16]	; (1f2c <hrt_SetBGX+0x1c>)
    1f1a:	469c      	mov	ip, r3
    1f1c:	0080      	lsls	r0, r0, #2
    1f1e:	0409      	lsls	r1, r1, #16
    1f20:	4460      	add	r0, ip
    1f22:	0c09      	lsrs	r1, r1, #16
    1f24:	8001      	strh	r1, [r0, #0]
    1f26:	4770      	bx	lr
    1f28:	00000000 	andeq	r0, r0, r0
    1f2c:	0400000a 	streq	r0, [r0], #-10

00001f30 <hrt_SetBGY>:
    1f30:	4b08      	ldr	r3, [pc, #32]	; (1f54 <hrt_SetBGY+0x24>)
    1f32:	781b      	ldrb	r3, [r3, #0]
    1f34:	2b01      	cmp	r3, #1
    1f36:	d10b      	bne.n	1f50 <hrt_SetBGY+0x20>
    1f38:	4b07      	ldr	r3, [pc, #28]	; (1f58 <hrt_SetBGY+0x28>)
    1f3a:	22ff      	movs	r2, #255	; 0xff
    1f3c:	469c      	mov	ip, r3
    1f3e:	0080      	lsls	r0, r0, #2
    1f40:	4460      	add	r0, ip
    1f42:	040b      	lsls	r3, r1, #16
    1f44:	4011      	ands	r1, r2
    1f46:	7802      	ldrb	r2, [r0, #0]
    1f48:	7001      	strb	r1, [r0, #0]
    1f4a:	0e1b      	lsrs	r3, r3, #24
    1f4c:	7842      	ldrb	r2, [r0, #1]
    1f4e:	7043      	strb	r3, [r0, #1]
    1f50:	4770      	bx	lr
    1f52:	46c0      	nop			; (mov r8, r8)
    1f54:	00000000 	andeq	r0, r0, r0
    1f58:	0400000b 	streq	r0, [r0], #-11

00001f5c <hrt_GetBGX>:
    1f5c:	4b07      	ldr	r3, [pc, #28]	; (1f7c <hrt_GetBGX+0x20>)
    1f5e:	781a      	ldrb	r2, [r3, #0]
    1f60:	2300      	movs	r3, #0
    1f62:	2a01      	cmp	r2, #1
    1f64:	d001      	beq.n	1f6a <hrt_GetBGX+0xe>
    1f66:	0018      	movs	r0, r3
    1f68:	4770      	bx	lr
    1f6a:	4b05      	ldr	r3, [pc, #20]	; (1f80 <hrt_GetBGX+0x24>)
    1f6c:	469c      	mov	ip, r3
    1f6e:	0080      	lsls	r0, r0, #2
    1f70:	4460      	add	r0, ip
    1f72:	8803      	ldrh	r3, [r0, #0]
    1f74:	041b      	lsls	r3, r3, #16
    1f76:	141b      	asrs	r3, r3, #16
    1f78:	e7f5      	b.n	1f66 <hrt_GetBGX+0xa>
    1f7a:	46c0      	nop			; (mov r8, r8)
    1f7c:	00000000 	andeq	r0, r0, r0
    1f80:	0400000a 	streq	r0, [r0], #-10

00001f84 <hrt_GetBGY>:
    1f84:	4b08      	ldr	r3, [pc, #32]	; (1fa8 <hrt_GetBGY+0x24>)
    1f86:	781a      	ldrb	r2, [r3, #0]
    1f88:	2300      	movs	r3, #0
    1f8a:	2a01      	cmp	r2, #1
    1f8c:	d001      	beq.n	1f92 <hrt_GetBGY+0xe>
    1f8e:	0018      	movs	r0, r3
    1f90:	4770      	bx	lr
    1f92:	4b06      	ldr	r3, [pc, #24]	; (1fac <hrt_GetBGY+0x28>)
    1f94:	469c      	mov	ip, r3
    1f96:	0080      	lsls	r0, r0, #2
    1f98:	4460      	add	r0, ip
    1f9a:	7802      	ldrb	r2, [r0, #0]
    1f9c:	7843      	ldrb	r3, [r0, #1]
    1f9e:	021b      	lsls	r3, r3, #8
    1fa0:	4313      	orrs	r3, r2
    1fa2:	041b      	lsls	r3, r3, #16
    1fa4:	141b      	asrs	r3, r3, #16
    1fa6:	e7f2      	b.n	1f8e <hrt_GetBGY+0xa>
    1fa8:	00000000 	andeq	r0, r0, r0
    1fac:	0400000b 	streq	r0, [r0], #-11

00001fb0 <hrt_GetBGPriority>:
    1fb0:	4b05      	ldr	r3, [pc, #20]	; (1fc8 <hrt_GetBGPriority+0x18>)
    1fb2:	781b      	ldrb	r3, [r3, #0]
    1fb4:	2b01      	cmp	r3, #1
    1fb6:	d001      	beq.n	1fbc <hrt_GetBGPriority+0xc>
    1fb8:	2000      	movs	r0, #0
    1fba:	4770      	bx	lr
    1fbc:	4b03      	ldr	r3, [pc, #12]	; (1fcc <hrt_GetBGPriority+0x1c>)
    1fbe:	469c      	mov	ip, r3
    1fc0:	4460      	add	r0, ip
    1fc2:	0040      	lsls	r0, r0, #1
    1fc4:	8803      	ldrh	r3, [r0, #0]
    1fc6:	e7f7      	b.n	1fb8 <hrt_GetBGPriority+0x8>
    1fc8:	00000000 	andeq	r0, r0, r0
    1fcc:	02000004 	andeq	r0, r0, #4

00001fd0 <hrt_GetBGTileBase>:
    1fd0:	4a07      	ldr	r2, [pc, #28]	; (1ff0 <hrt_GetBGTileBase+0x20>)
    1fd2:	7812      	ldrb	r2, [r2, #0]
    1fd4:	0003      	movs	r3, r0
    1fd6:	2000      	movs	r0, #0
    1fd8:	2a01      	cmp	r2, #1
    1fda:	d000      	beq.n	1fde <hrt_GetBGTileBase+0xe>
    1fdc:	4770      	bx	lr
    1fde:	4a05      	ldr	r2, [pc, #20]	; (1ff4 <hrt_GetBGTileBase+0x24>)
    1fe0:	4694      	mov	ip, r2
    1fe2:	4463      	add	r3, ip
    1fe4:	005b      	lsls	r3, r3, #1
    1fe6:	881b      	ldrh	r3, [r3, #0]
    1fe8:	3002      	adds	r0, #2
    1fea:	4018      	ands	r0, r3
    1fec:	e7f6      	b.n	1fdc <hrt_GetBGTileBase+0xc>
    1fee:	46c0      	nop			; (mov r8, r8)
    1ff0:	00000000 	andeq	r0, r0, r0
    1ff4:	02000004 	andeq	r0, r0, #4

00001ff8 <hrt_GetBGMapBase>:
    1ff8:	4a07      	ldr	r2, [pc, #28]	; (2018 <hrt_GetBGMapBase+0x20>)
    1ffa:	7812      	ldrb	r2, [r2, #0]
    1ffc:	0003      	movs	r3, r0
    1ffe:	2000      	movs	r0, #0
    2000:	2a01      	cmp	r2, #1
    2002:	d000      	beq.n	2006 <hrt_GetBGMapBase+0xe>
    2004:	4770      	bx	lr
    2006:	4a05      	ldr	r2, [pc, #20]	; (201c <hrt_GetBGMapBase+0x24>)
    2008:	4694      	mov	ip, r2
    200a:	4463      	add	r3, ip
    200c:	005b      	lsls	r3, r3, #1
    200e:	881b      	ldrh	r3, [r3, #0]
    2010:	3008      	adds	r0, #8
    2012:	4018      	ands	r0, r3
    2014:	e7f6      	b.n	2004 <hrt_GetBGMapBase+0xc>
    2016:	46c0      	nop			; (mov r8, r8)
    2018:	00000000 	andeq	r0, r0, r0
    201c:	02000004 	andeq	r0, r0, #4

00002020 <hrt_GetBGScreenSize>:
    2020:	4a07      	ldr	r2, [pc, #28]	; (2040 <hrt_GetBGScreenSize+0x20>)
    2022:	7812      	ldrb	r2, [r2, #0]
    2024:	0003      	movs	r3, r0
    2026:	2000      	movs	r0, #0
    2028:	2a01      	cmp	r2, #1
    202a:	d000      	beq.n	202e <hrt_GetBGScreenSize+0xe>
    202c:	4770      	bx	lr
    202e:	4a05      	ldr	r2, [pc, #20]	; (2044 <hrt_GetBGScreenSize+0x24>)
    2030:	4694      	mov	ip, r2
    2032:	4463      	add	r3, ip
    2034:	005b      	lsls	r3, r3, #1
    2036:	881b      	ldrh	r3, [r3, #0]
    2038:	300e      	adds	r0, #14
    203a:	4018      	ands	r0, r3
    203c:	e7f6      	b.n	202c <hrt_GetBGScreenSize+0xc>
    203e:	46c0      	nop			; (mov r8, r8)
    2040:	00000000 	andeq	r0, r0, r0
    2044:	02000004 	andeq	r0, r0, #4

00002048 <hrt_IsBGWraparound>:
    2048:	4a07      	ldr	r2, [pc, #28]	; (2068 <hrt_IsBGWraparound+0x20>)
    204a:	7812      	ldrb	r2, [r2, #0]
    204c:	0003      	movs	r3, r0
    204e:	2000      	movs	r0, #0
    2050:	2a01      	cmp	r2, #1
    2052:	d000      	beq.n	2056 <hrt_IsBGWraparound+0xe>
    2054:	4770      	bx	lr
    2056:	4a05      	ldr	r2, [pc, #20]	; (206c <hrt_IsBGWraparound+0x24>)
    2058:	4694      	mov	ip, r2
    205a:	4463      	add	r3, ip
    205c:	005b      	lsls	r3, r3, #1
    205e:	881b      	ldrh	r3, [r3, #0]
    2060:	300d      	adds	r0, #13
    2062:	4018      	ands	r0, r3
    2064:	e7f6      	b.n	2054 <hrt_IsBGWraparound+0xc>
    2066:	46c0      	nop			; (mov r8, r8)
    2068:	00000000 	andeq	r0, r0, r0
    206c:	02000004 	andeq	r0, r0, #4

00002070 <hrt_IsBGMosaic>:
    2070:	4a07      	ldr	r2, [pc, #28]	; (2090 <hrt_IsBGMosaic+0x20>)
    2072:	7812      	ldrb	r2, [r2, #0]
    2074:	0003      	movs	r3, r0
    2076:	2000      	movs	r0, #0
    2078:	2a01      	cmp	r2, #1
    207a:	d000      	beq.n	207e <hrt_IsBGMosaic+0xe>
    207c:	4770      	bx	lr
    207e:	4a05      	ldr	r2, [pc, #20]	; (2094 <hrt_IsBGMosaic+0x24>)
    2080:	4694      	mov	ip, r2
    2082:	4463      	add	r3, ip
    2084:	005b      	lsls	r3, r3, #1
    2086:	881b      	ldrh	r3, [r3, #0]
    2088:	3006      	adds	r0, #6
    208a:	4018      	ands	r0, r3
    208c:	e7f6      	b.n	207c <hrt_IsBGMosaic+0xc>
    208e:	46c0      	nop			; (mov r8, r8)
    2090:	00000000 	andeq	r0, r0, r0
    2094:	02000004 	andeq	r0, r0, #4

00002098 <hrt_DSPIsBGEnabled>:
    2098:	4a08      	ldr	r2, [pc, #32]	; (20bc <hrt_DSPIsBGEnabled+0x24>)
    209a:	7812      	ldrb	r2, [r2, #0]
    209c:	0001      	movs	r1, r0
    209e:	2000      	movs	r0, #0
    20a0:	2a01      	cmp	r2, #1
    20a2:	d000      	beq.n	20a6 <hrt_DSPIsBGEnabled+0xe>
    20a4:	4770      	bx	lr
    20a6:	4b06      	ldr	r3, [pc, #24]	; (20c0 <hrt_DSPIsBGEnabled+0x28>)
    20a8:	18cb      	adds	r3, r1, r3
    20aa:	3108      	adds	r1, #8
    20ac:	0008      	movs	r0, r1
    20ae:	005b      	lsls	r3, r3, #1
    20b0:	881b      	ldrh	r3, [r3, #0]
    20b2:	4018      	ands	r0, r3
    20b4:	0600      	lsls	r0, r0, #24
    20b6:	0e00      	lsrs	r0, r0, #24
    20b8:	e7f4      	b.n	20a4 <hrt_DSPIsBGEnabled+0xc>
    20ba:	46c0      	nop			; (mov r8, r8)
    20bc:	00000000 	andeq	r0, r0, r0
    20c0:	02000004 	andeq	r0, r0, #4

000020c4 <hrt_DSPIsHBlankUnlocked>:
    20c4:	4b05      	ldr	r3, [pc, #20]	; (20dc <hrt_DSPIsHBlankUnlocked+0x18>)
    20c6:	781b      	ldrb	r3, [r3, #0]
    20c8:	2000      	movs	r0, #0
    20ca:	2b01      	cmp	r3, #1
    20cc:	d000      	beq.n	20d0 <hrt_DSPIsHBlankUnlocked+0xc>
    20ce:	4770      	bx	lr
    20d0:	2380      	movs	r3, #128	; 0x80
    20d2:	04db      	lsls	r3, r3, #19
    20d4:	881b      	ldrh	r3, [r3, #0]
    20d6:	3005      	adds	r0, #5
    20d8:	4018      	ands	r0, r3
    20da:	e7f8      	b.n	20ce <hrt_DSPIsHBlankUnlocked+0xa>
    20dc:	00000000 	andeq	r0, r0, r0

000020e0 <hrt_DSPIsFrameSelect>:
    20e0:	4b05      	ldr	r3, [pc, #20]	; (20f8 <hrt_DSPIsFrameSelect+0x18>)
    20e2:	781b      	ldrb	r3, [r3, #0]
    20e4:	2000      	movs	r0, #0
    20e6:	2b01      	cmp	r3, #1
    20e8:	d000      	beq.n	20ec <hrt_DSPIsFrameSelect+0xc>
    20ea:	4770      	bx	lr
    20ec:	2380      	movs	r3, #128	; 0x80
    20ee:	04db      	lsls	r3, r3, #19
    20f0:	881b      	ldrh	r3, [r3, #0]
    20f2:	3004      	adds	r0, #4
    20f4:	4018      	ands	r0, r3
    20f6:	e7f8      	b.n	20ea <hrt_DSPIsFrameSelect+0xa>
    20f8:	00000000 	andeq	r0, r0, r0

000020fc <hrt_DSPIsWin0Enabled>:
    20fc:	4b05      	ldr	r3, [pc, #20]	; (2114 <hrt_DSPIsWin0Enabled+0x18>)
    20fe:	781b      	ldrb	r3, [r3, #0]
    2100:	2000      	movs	r0, #0
    2102:	2b01      	cmp	r3, #1
    2104:	d000      	beq.n	2108 <hrt_DSPIsWin0Enabled+0xc>
    2106:	4770      	bx	lr
    2108:	2380      	movs	r3, #128	; 0x80
    210a:	04db      	lsls	r3, r3, #19
    210c:	881b      	ldrh	r3, [r3, #0]
    210e:	300d      	adds	r0, #13
    2110:	4018      	ands	r0, r3
    2112:	e7f8      	b.n	2106 <hrt_DSPIsWin0Enabled+0xa>
    2114:	00000000 	andeq	r0, r0, r0

00002118 <hrt_DSPIsWin1Enabled>:
    2118:	4b05      	ldr	r3, [pc, #20]	; (2130 <hrt_DSPIsWin1Enabled+0x18>)
    211a:	781b      	ldrb	r3, [r3, #0]
    211c:	2000      	movs	r0, #0
    211e:	2b01      	cmp	r3, #1
    2120:	d000      	beq.n	2124 <hrt_DSPIsWin1Enabled+0xc>
    2122:	4770      	bx	lr
    2124:	2380      	movs	r3, #128	; 0x80
